
depend_Release_CSR101x_A05/obsrvr2.elf:     file format elf32-xap2

Disassembly of section .text:

0x00000010 <PROG_PATCH_ADDRESS>:
      10:	02AE      	ror        @(+0x2, x)
      11:	7F75      	nadd       al, @0x7F <.LEFDE8+0x7>
      12:	2000      	**prefx    0x20
      13:	17DE      	xor        y, @(+0x2017, x)
      14:	DC20      	bgt        -0x24 <___libgatt_lib_db_1306+0x7FFFF0:0xFFFFF0[p]>
      15:	201E      	ld         y, @(+0x20, x)
      16:	19C6      	and        al, @(+0x19, x)
      17:	C720      	bgt        -0x39 <___libgatt_lib_db_1306+0x7FFFDE:0xFFFFDE[p]>
      18:	2014      	ld         al, #+0x20
      19:	55C1      	and        ah, @0x55 <___libgatt_lib_db_2574>
      1A:	C420      	bgt        -0x3C <___libgatt_lib_db_1306+0x7FFFDE:0xFFFFDE[p]>
      1B:	200A      	st         xh, @(+0x20, y)
      1C:	09C0      	and        ah, #0x9
      1D:	C220      	bgt        -0x3E <___libgatt_lib_db_1306+0x7FFFDF:0xFFFFDF[p]>
      1E:	804E      	addc       y, @(-0x80, x)
      1F:	21E6      	blt        +0x21, x
      20:	21C3      	and        ah, @(+0x21, y)
      21:	2196      	sdiv       @(+0x21, x)
      22:	416F      	subc       y, @(+0x41, y)
      23:	4111      	ld         ah, @0x41 <___libgatt_lib_db_224>
      24:	9057      	sub        al, @(-0x70, y)
      25:	3801      	st         flags, @(+0x38, y)
      26:	B4E0      	bra        -0x4C <___libgatt_lib_db_1306+0x7FFFDA:0xFFFFDA[p]>
      27:	02C2      	and        ah, @(+0x2, x)
      28:	0D80      	cmp        ah, #+0xD
      29:	C3B4      	or         al, #-0x3D
      2A:	8002      	st         ux, @(-0x80, y)
      2B:	B408      	**Unknown**
      2C:	02C4      	and        al, #0x2
      2D:	0380      	cmp        ah, #+0x3
      2E:	C6B4      	or         al, #-0x3A
      2F:	9022      	st         ah, @(-0x70, x)
      30:	E800      	**prefx    0xE8
      31:	70E0      	bra        -0x1790 <___libgatt_lib_db_1306+0x7FE8A1:0xFFE8A1[p]>
      32:	901C      	ld         y, #-0x70
      33:	E900      	**prefx    0xE9
      34:	70E0      	bra        -0x1690 <___libgatt_lib_db_1306+0x7FE9A4:0xFFE9A4[p]>
      35:	9016      	ld         al, @(-0x70, x)
      36:	6000      	**prefx    0x60
      37:	60E0      	bra        +0x6060 <___libgatt_lib_db_3843+0x81D:0x6097[p]>
      38:	2402      	st         ux, @(+0x24, y)
      39:	F802      	st         ux, @(-0x8, y)
      3A:	0290      	smult      #+0x2
      3B:	E058      	sub        x, #-0x20
      3C:	9028      	ble        -0x70 <___libgatt_lib_db_1306+0x7FFFCC:0xFFFFCC[p]>
      3D:	1802      	st         ux, @(+0x18, y)
      3E:	90F0      	bne        -0x70 <___libgatt_lib_db_1306+0x7FFFCE:0xFFFFCE[p]>
      3F:	1F02      	st         ux, @(+0x1F, y)
      40:	75F0      	bne        +0x75 <___libgatt_lib_db_4094:0xB5[p]>
      41:	10E8      	bpl        +0x10 <___libgatt_lib_db_2885:0x51[p]>
      42:	E875      	nadd       al, @0xFFE8 <(scratchpad)>
      43:	8000      	**prefx    0x80
      44:	809C      	bsr        -0x8080 <___libgatt_lib_db_1306+0x7F7FC4:0xFF7FC4[p]>
      45:	904E      	addc       y, @(-0x70, x)
      46:	E800      	**prefx    0xE8
      47:	B4E0      	bra        -0x184C <___libgatt_lib_db_1306+0x7FE7FB:0xFFE7FB[p]>
      48:	1706      	ld         ux, @(+0x17, y)
      49:	0290      	smult      #+0x2
      4A:	EA00      	**prefx    0xEA
      4B:	A3F0      	bne        -0x165D <___libgatt_lib_db_1306+0x7FE9EE:0xFFE9EE[p]>
      4C:	F0EB      	bpl        @(-0x10, y)
      4D:	E0A3      	asl        @(-0x20, y)
      4E:	A3F0      	bne        -0x5D <___libgatt_lib_db_1306+0x7FFFF1:0xFFFFF1[p]>
      4F:	F0E0      	bra        -0x10 <___libgatt_lib_db_2824:0x3F[p]>
      50:	E0A3      	asl        @(-0x20, y)
      51:	90F0      	bne        -0x70 <___libgatt_lib_db_1306+0x7FFFE1:0xFFFFE1[p]>
      52:	0702      	st         ux, @(+0x7, y)
      53:	80F0      	bne        -0x80 <___libgatt_lib_db_1306+0x7FFFD3:0xFFFFD3[p]>
      54:	9028      	ble        -0x70 <___libgatt_lib_db_1306+0x7FFFE4:0xFFFFE4[p]>
      55:	0002      	st         ux, @(0x0, y)
      56:	F8E0      	bra        -0x8 <UART_RATE_19K2:0x4E[p]>
      57:	9AC3      	and        ah, @(-0x66, y)
      58:	0670      	nadd       ah, #+0x6
      59:	E0A3      	asl        @(-0x20, y)
      5A:	9BF9      	bcc        @0xFF9B <___libgatt_lib_db_2743+0x11A>
      5B:	1960      	subc       ah, #+0x19
      5C:	0190      	smult      #+0x1
      5D:	E0D8      	xor        x, #0xFFE0
      5E:	9AC3      	and        ah, @(-0x66, y)
      5F:	A3FC      	bcs        -0x5D <___libgatt_lib_db_1076:0x2[p]>
      60:	9BE0      	bra        -0x65 <___libgatt_lib_db_1306+0x7FFFFB:0xFFFFFB[p]>
      61:	ECFD      	bcs        @0xFFEC <(scratchpad)>
      62:	9028      	ble        -0x70 <___libgatt_lib_db_1306+0x7FFFF2:0xFFFFF2[p]>
      63:	D801      	st         flags, @(-0x28, y)
      64:	EDF0      	bne        -0x13 <___libgatt_lib_db_2885:0x51[p]>
      65:	A339      	add        x, @0xFFA3 <___libgatt_lib_db_2743+0x122>
      66:	90F0      	bne        -0x70 <___libgatt_lib_db_1306+0x7FFFF6:0xFFFFF6[p]>
      67:	DF01      	st         flags, @(-0x21, y)
      68:	75F0      	bne        +0x75 <___libgatt_lib_db_460+0x1:0xDD[p]>
      69:	04C8      	and        x, #0x4
      6A:	C875      	nadd       al, @0xFFC8 <___libgatt_lib_db_2743+0x147>
      6B:	0100      	**prefx    0x1
      6C:	9003      	st         uy, @(+0x90, y)
      6D:	F001      	st         flags, @(-0x10, y)
      6E:	30E0      	bra        +0x30 <UART_RATE_38K4:0x9E[p]>
      6F:	25E0      	bra        +0x25 <___libgatt_lib_db_203:0x94[p]>
      70:	0190      	smult      #+0x1
      71:	E0D8      	xor        x, #0xFFE0
      72:	90F9      	bcc        @0xFF90 <___libgatt_lib_db_2743+0x10F>
      73:	7001      	st         flags, @(+0x70, y)
      74:	C3E0      	bra        -0x3D <___libgatt_lib_db_129:0x37[p]>
      75:	7099      	tst        @0x70 <___libgatt_lib_db_4057>
      76:	9018      	ld         x, #-0x70
      77:	D901      	st         flags, @(-0x27, y)
      78:	F9E0      	bra        -0x7 <___libgatt_lib_db_3993:0x71[p]>
      79:	0190      	smult      #+0x1
      7A:	E071      	nadd       ah, @0xFFE0 <register ah>
      7B:	99C3      	and        ah, @(-0x67, y)
      7C:	0B70      	nadd       ah, #+0xB
      7D:	0290      	smult      #+0x2
      7E:	E0F8      	bcc        -0x20 <___libgatt_lib_db_2586:0x5E[p]>
      7F:	0154      	sub        al, #+0x1
      80:	90F0      	bne        -0x70 <PROG_APPCODE_START:0x10[p]>
      81:	FF02      	st         ux, @(-0x1, y)
      82:	90F0      	bne        -0x70 <___libgatt_lib_db_2070:0x12[p]>
      83:	E800      	**prefx    0xE8
      84:	F8E0      	bra        -0x1808 <___libgatt_lib_db_1306+0x7FE87C:0xFFE87C[p]>
      85:	0290      	smult      #+0x2
      86:	E000      	**prefx    0xE0
      87:	B8FA      	bcc        -0x2048, x
      88:	0306      	ld         ux, @(+0x3, y)
      89:	0274      	nadd       al, #+0x2
      8A:	A3F0      	bne        -0x5D <___libgatt_lib_db_2509:0x2D[p]>
      8B:	FBE0      	bra        -0x5 <___libgatt_lib_db_4491:0x86[p]>
      8C:	06B8      	or         x, #+0x6
      8D:	7410      	ld         ah, #+0x74
      8E:	F000      	**prefx    0xF0
      8F:	E0A3      	asl        @(-0x1020, y)
      90:	A3F0      	bne        -0x5D <___libgatt_lib_db_2530:0x33[p]>
      91:	F0E0      	bra        -0x10 <___libgatt_lib_db_108:0x81[p]>
      92:	E0A3      	asl        @(-0x20, y)
      93:	90F0      	bne        -0x70 <___libgatt_lib_db_102:0x23[p]>
      94:	0702      	st         ux, @(+0x7, y)
      95:	90F0      	bne        -0x70 <___libgatt_lib_db_179:0x25[p]>
      96:	F001      	st         flags, @(-0x10, y)
      97:	30E0      	bra        +0x30 <___libgatt_lib_db_2924+0x1:0xC7[p]>
      98:	57E1      	bra        @0x57 <___libgatt_lib_db_2589>
      99:	D3D2      	xor        ah, @(-0x2D, x)
      9A:	A3F0      	bne        -0x5D <___libgatt_lib_db_2594:0x3D[p]>
      9B:	F0E0      	bra        -0x10 <___libgatt_lib_db_4318+0x1:0x8B[p]>
      9C:	E0A3      	asl        @(-0x20, y)
      9D:	0B54      	sub        al, #+0xB
      9E:	90F0      	bne        -0x70 <___libgatt_lib_db_2521:0x2E[p]>
      9F:	F701      	st         flags, @(-0x9, y)
      A0:	90F0      	bne        -0x70 <___libgatt_lib_db_130:0x30[p]>
      A1:	C002      	st         ux, @(-0x40, y)
      A2:	F8E0      	bra        -0x8 <___libgatt_lib_db_4378:0x9A[p]>
      A3:	E0A3      	asl        @(-0x20, y)
      A4:	A3F9      	bcc        @0xFFA3 <___libgatt_lib_db_2743+0x122>
      A5:	30E0      	bra        +0x30 <___libgatt_lib_db_239+0x2:0xD5[p]>
      A6:	07E6      	blt        +0x7, x
      A7:	E7D2      	xor        ah, @(-0x19, x)
      A8:	7BFA      	bcc        +0x7B, x
      A9:	80FF      	bcs        @(-0x80, y)
      AA:	C205      	ld         flags, @(-0x3E, y)
      AB:	FAE7      	blt        @(-0x6, y)
      AC:	007B      	nadd       x, @(0x0, y)
      AD:	0290      	smult      #+0x2
      AE:	E4C0      	and        ah, #0xFFE4
      AF:	A3F0      	bne        -0x5D <___libgatt_lib_db_122:0x52[p]>
      B0:	A3F0      	bne        -0x5D <___libgatt_lib_db_2573:0x53[p]>
      B1:	A3F0      	bne        -0x5D <___libgatt_lib_db_10:0x54[p]>
      B2:	A3F0      	bne        -0x5D <___libgatt_lib_db_2574:0x55[p]>
      B3:	A3F0      	bne        -0x5D <___libgatt_lib_db_2532:0x56[p]>
      B4:	F0A3      	asl        @(-0x10, y)
      B5:	90C3      	and        ah, @(-0x70, y)
      B6:	C001      	st         flags, @(-0x40, y)
      B7:	98E0      	bra        -0x68 <___libgatt_lib_db_20:0x4F[p]>
      B8:	A3F0      	bne        -0x5D <___libgatt_lib_db_2563:0x5B[p]>
      B9:	99E0      	bra        -0x67 <___libgatt_lib_db_122:0x52[p]>
      BA:	A3F0      	bne        -0x5D <___libgatt_lib_db_121:0x5D[p]>
      BB:	9AE0      	bra        -0x66 <___libgatt_lib_db_2574:0x55[p]>
      BC:	A3F0      	bne        -0x5D <___libgatt_lib_db_2528:0x5F[p]>
      BD:	9BE0      	bra        -0x65 <CSTORE_SIZE:0x58[p]>
      BE:	A3F0      	bne        -0x5D <___libgatt_lib_db_2556:0x61[p]>
      BF:	9BE0      	bra        -0x65 <___libgatt_lib_db_2564:0x5A[p]>
      C0:	A3F0      	bne        -0x5D <___libgatt_lib_db_249:0x63[p]>
      C1:	9BE0      	bra        -0x65 <___libgatt_lib_db_2547:0x5C[p]>
      C2:	A3F0      	bne        -0x5D <___libgatt_lib_db_2508:0x65[p]>
      C3:	C2F0      	bne        -0x3E <___libgatt_lib_db_4509:0x85[p]>
      C4:	75D3      	xor        ah, @(+0x75, y)
      C5:	02C8      	and        x, #0x2
      C6:	C875      	nadd       al, @0xFFC8 <___libgatt_lib_db_2743+0x147>
      C7:	0100      	**prefx    0x1
      C8:	9003      	st         uy, @(+0x90, y)
      C9:	F001      	st         flags, @(-0x10, y)
      CA:	30E0      	bra        +0x30 <___libgatt_lib_db_4622+0x4:0xFA[p]>
      CB:	18E5      	blt        @0x18 <BSS_APP_SIZE>
      CC:	0190      	smult      #+0x1
      CD:	E0A0      	asl        #0xFFE0
      CE:	A3F0      	bne        -0x5D <___libgatt_lib_db_3993:0x71[p]>
      CF:	F0E0      	bra        -0x10 <___libgatt_lib_db_136+0x1:0xBF[p]>
      D0:	E0A3      	asl        @(-0x20, y)
      D1:	A3F0      	bne        -0x5D <___libgatt_lib_db_4382+0x1:0x74[p]>
      D2:	F0E0      	bra        -0x10 <___libgatt_lib_db_2929:0xC2[p]>
      D3:	E0A3      	asl        @(-0x20, y)
      D4:	A3F0      	bne        -0x5D <___libgatt_lib_db_3936:0x77[p]>
      D5:	F0E0      	bra        -0x10 <___libgatt_lib_db_2931:0xC5[p]>
      D6:	0290      	smult      #+0x2
      D7:	F02F      	st         y, @(-0x10, y)
      D8:	C875      	nadd       al, @0xFFC8 <___libgatt_lib_db_2743+0x147>
      D9:	7501      	st         flags, @(+0x75, y)
      DA:	00C8      	and        x, #0x0
      DB:	0301      	st         flags, @(+0x3, y)
      DC:	0190      	smult      #+0x1
      DD:	E028      	ble        -0x20 <___libgatt_lib_db_4094+0x8:0xBD[p]>
      DE:	45B4      	or         al, #+0x45
      DF:	901E      	ld         y, @(-0x70, x)
      E0:	0000      	**prefx    0x0
      E1:	F0E0      	bra        -0x10 <___libgatt_lib_db_2933+0x2:0xD1[p]>
      E2:	A3FF      	bcs        @(-0x5D, y)
      E3:	F0E0      	bra        -0x10 <___libgatt_lib_db_239:0xD3[p]>
      E4:	90FE      	bcs        -0x70, x
      E5:	8000      	**prefx    0x80
      E6:	FDE0      	bra        -0x8003 <___libgatt_lib_db_1306+0x7F80E3:0xFF80E3[p]>
      E7:	E0A3      	asl        @(-0x20, y)
      E8:	EFFC      	bcs        -0x11 <___libgatt_lib_db_239+0x4:0xD7[p]>
      E9:	9DC3      	and        ah, @(-0x63, y)
      EA:	9CEE      	bmi        -0x64, x
      EB:	E730      	add        ah, #-0x19
      EC:	9004      	**Unknown**
      ED:	8700      	**prefx    0x87
      EE:	75F0      	bne        -0x788B <___libgatt_lib_db_1306+0x7F8863:0xFF8863[p]>
      EF:	10C8      	and        x, #0x10
      F0:	C875      	nadd       al, @0xFFC8 <___libgatt_lib_db_2743+0x147>
      F1:	0100      	**prefx    0x1
      F2:	9003      	st         uy, @(+0x90, y)
      F3:	E800      	**prefx    0xE8
      F4:	30E0      	bra        -0x17D0 <___libgatt_lib_db_1306+0x7FE924:0xFFE924[p]>
      F5:	3FE2      	bra        +0x3F, x
      F6:	0190      	smult      #+0x1
      F7:	E038      	add        x, #-0x20
      F8:	CAB4      	or         al, #-0x36
      F9:	8002      	st         ux, @(-0x80, y)
      FA:	B417      	ld         al, @(-0x4C, y)
      FB:	02C9      	and        x, @0x2 <___libgatt_lib_db_1076>
      FC:	1280      	cmp        ah, #+0x12
      FD:	CBB4      	or         al, #-0x35
      FE:	8002      	st         ux, @(-0x80, y)
      FF:	B40D      	rti        @(-0x4C, y)
     100:	02CC      	and        y, #0x2
     101:	0880      	cmp        ah, #+0x8
     102:	CDB4      	or         al, #-0x33
     103:	8002      	st         ux, @(-0x80, y)
     104:	B403      	st         uy, @(-0x4C, y)
     105:	1FAF      	ror        @(+0x1F, y)
     106:	0190      	smult      #+0x1
     107:	E0F0      	bne        -0x20 <ROMDATA_SIZE+0x1:0xE7[p]>
     108:	0444      	addc       al, #+0x4
     109:	A3F0      	bne        -0x5D <___libgatt_lib_db_2991:0xAC[p]>
     10A:	F0E0      	bra        -0x10 <___libgatt_lib_db_4622+0x4:0xFA[p]>
     10B:	E0A3      	asl        @(-0x20, y)
     10C:	90F0      	bne        -0x70 <___libgatt_lib_db_4107+0x1:0x9C[p]>
     10D:	F701      	st         flags, @(-0x9, y)
     10E:	90F0      	bne        -0x70 <UART_RATE_38K4:0x9E[p]>
     10F:	E800      	**prefx    0xE8
     110:	C2E0      	bra        -0x183E <___libgatt_lib_db_1306+0x7FE8D2:0xFFE8D2[p]>
     111:	F0E6      	blt        -0x10, x
     112:	E0A3      	asl        @(-0x20, y)
     113:	90F0      	bne        -0x70 <___libgatt_lib_db_2969:0xA3[p]>
     114:	EF00      	**prefx    0xEF
     115:	75F0      	bne        -0x108B <___libgatt_lib_db_1306+0x7FF08A:0xFFF08A[p]>
     116:	40E8      	bpl        +0x40 <___libgatt_lib_db_4386+0x2B:0x156[p]>
     117:	E875      	nadd       al, @0xFFE8 <(scratchpad)>
     118:	0100      	**prefx    0x1
     119:	E503      	st         uy, @(+0xE5, y)
     11A:	607F      	nadd       y, @(+0x60, y)
     11B:	903A      	add        x, @(-0x70, x)
     11C:	2801      	st         flags, @(+0x28, y)
     11D:	4B74      	nadd       al, #+0x4B
     11E:	90F0      	bne        -0x70 <___libgatt_lib_db_2981+0x1:0xAE[p]>
     11F:	2F01      	st         flags, @(+0x2F, y)
     120:	75F0      	bne        +0x75 <.LVL4+0x3:0x195[p]>
     121:	007F      	nadd       y, @(0x0, y)
     122:	0290      	smult      #+0x2
     123:	E080      	cmp        ah, #-0x20
     124:	2323      	st         ah, @(+0x23, y)
     125:	90F8      	bcc        -0x70 <___libgatt_lib_db_4094:0xB5[p]>
     126:	4002      	st         ux, @(+0x40, y)
     127:	48E0      	bra        +0x48 <___libgatt_lib_db_476+0x7:0x16F[p]>
     128:	0090      	smult      #+0x0
     129:	F0F0      	bne        -0x10 <L0+0x6:0x119[p]>
     12A:	0090      	smult      #+0x0
     12B:	F0F7      	beq        @(-0x10, y)
     12C:	0290      	smult      #+0x2
     12D:	E098      	tst        #-0x20
     12E:	0190      	smult      #+0x1
     12F:	F0A8      	rol        #0xFFF0
     130:	E0A3      	asl        @(-0x20, y)
     131:	A3F0      	bne        -0x5D <___libgatt_lib_db_239+0x1:0xD4[p]>
     132:	F0E0      	bra        -0x10 <L0+0xF:0x122[p]>
     133:	E0A3      	asl        @(-0x20, y)
     134:	A3F0      	bne        -0x5D <___libgatt_lib_db_239+0x4:0xD7[p]>
     135:	F0E0      	bra        -0x10 <L0+0x12:0x125[p]>
     136:	E0A3      	asl        @(-0x20, y)
     137:	A3F0      	bne        -0x5D <___libgatt_lib_db_239+0x7:0xDA[p]>
     138:	75F0      	bne        +0x75 <___libgatt_lib_db_4224+0x6:0x1AD[p]>
     139:	80C8      	and        x, #0xFF80
     13A:	C875      	nadd       al, @0xFFC8 <___libgatt_lib_db_2743+0x147>
     13B:	0100      	**prefx    0x1
     13C:	9003      	st         uy, @(+0x90, y)
     13D:	3801      	st         flags, @(+0x38, y)
     13E:	54E0      	bra        +0x54 <.LVL4:0x192[p]>
     13F:	B4FE      	bcs        -0x4C, x
     140:	45CA      	and        x, @(+0x45, x)
     141:	0290      	smult      #+0x2
     142:	E070      	nadd       ah, #-0x20
     143:	F5F9      	bcc        @0xFFF5 <(scratchpad)>
     144:	7582      	cmp        ah, @(+0x75, x)
     145:	0883      	cmp        ah, @(+0x8, y)
     146:	F4E0      	bra        -0xC <___libgatt_lib_db_4386+0xF:0x13A[p]>
     147:	0354      	sub        al, #+0x3
     148:	3560      	subc       ah, #+0x35
     149:	0090      	smult      #+0x0
     14A:	E060      	subc       ah, #-0x20
     14B:	2F60      	subc       ah, #+0x2F
     14C:	0224      	bge        +0x2 <___libgatt_lib_db_4386+0x23:0x14E[p]>
     14D:	90F8      	bcc        -0x70 <___libgatt_lib_db_460+0x1:0xDD[p]>
     14E:	7802      	st         ux, @(+0x78, y)
     14F:	60E0      	bra        +0x60 <.LVL2:0x1AF[p]>
     150:	9826      	st         al, @(-0x68, x)
     151:	2370      	nadd       ah, #+0x23
     152:	4774      	nadd       al, #+0x47
     153:	90F0      	bne        -0x70 <___libgatt_lib_db_460+0x7:0xE3[p]>
     154:	F101      	st         flags, @(-0xF, y)
     155:	20E0      	bra        +0x20 <___libgatt_lib_db_476+0xD:0x175[p]>
     156:	19E6      	blt        +0x19, x
     157:	0190      	smult      #+0x1
     158:	F02F      	st         y, @(-0x10, y)
     159:	0090      	smult      #+0x0
     15A:	E440      	addc       ah, #-0x1C
     15B:	90F0      	bne        -0x70 <UART_RATE_57K6:0xEB[p]>
     15C:	4700      	**prefx    0x47
     15D:	89F0      	bne        +0x4689 <DATA_ROM_SIZE+0x7E6:0x47E6[p]>
     15E:	7582      	cmp        ah, @(+0x75, x)
     15F:	0883      	cmp        ah, @(+0x8, y)
     160:	54E0      	bra        +0x54 <.LVL3+0x2:0x1B4[p]>
     161:	F0EF      	bmi        @(-0x10, y)
     162:	7F75      	nadd       al, @0x7F <.LEFDE8+0x7>
     163:	75FF      	bcs        @(+0x75, y)
     164:	40C8      	and        x, #0x40
     165:	C875      	nadd       al, @0xFFC8 <___libgatt_lib_db_2743+0x147>
     166:	0100      	**prefx    0x1
     167:	0003      	st         uy, @(+0x100, y)

0x00000168 <___libgatt_lib_db_476>:
     168:	0014      	ld         al, #+0x0
     169:	9700      	**prefx    0x97
     16A:	3625      	st         al, @0x9736 <sm_store_recall>
     16B:	0014      	ld         al, #+0x0
     16C:	9700      	**prefx    0x97
     16D:	3725      	st         al, @0x9737 <sm_keys_request>
     16E:	0014      	ld         al, #+0x0
     16F:	9700      	**prefx    0x97
     170:	3825      	st         al, @0x9738 <sm_div_approve_request>
     171:	0014      	ld         al, #+0x0
     172:	3400      	**prefx    0x34
     173:	B625      	st         al, @0x33B6 <sm_pairing_auth_ind>
     174:	0014      	ld         al, #+0x0
     175:	3400      	**prefx    0x34
     176:	B525      	st         al, @0x33B5 <sm_long_term_key_ind>
     177:	00E2      	bra        0x0, x

0x00000178 <SMFeaturesReq>:
     178:	030B      	enter      #+0x3

0x00000179 <.LCFI0>:
     179:	0027      	st         al, @(0x0, y)
     17A:	0123      	st         ah, @(+0x1, y)
     17B:	ED9C      	bsr        -0x13 <___libgatt_lib_db_476:0x168[p]>

0x0000017C <.LVL1>:
     17C:	009B      	tst        @(0x0, y)
     17D:	04F0      	bne        +0x4 <.LVL1+0x5:0x181[p]>
     17E:	0014      	ld         al, #+0x0
     17F:	9700      	**prefx    0x97
     180:	3625      	st         al, @0x9736 <sm_store_recall>
     181:	019B      	tst        @(+0x1, y)
     182:	04F0      	bne        +0x4 <.LVL1+0xA:0x186[p]>
     183:	0014      	ld         al, #+0x0
     184:	9700      	**prefx    0x97
     185:	3725      	st         al, @0x9737 <sm_keys_request>
     186:	039B      	tst        @(+0x3, y)
     187:	04F0      	bne        +0x4 <.LVL2+0x3:0x18B[p]>

0x00000188 <.LVL2>:
     188:	0014      	ld         al, #+0x0
     189:	9700      	**prefx    0x97
     18A:	3825      	st         al, @0x9738 <sm_div_approve_request>
     18B:	049B      	tst        @(+0x4, y)
     18C:	04F0      	bne        +0x4 <.LVL3+0x3:0x190[p]>

0x0000018D <.LVL3>:
     18D:	0014      	ld         al, #+0x0
     18E:	3400      	**prefx    0x34
     18F:	B625      	st         al, @0x33B6 <sm_pairing_auth_ind>
     190:	059B      	tst        @(+0x5, y)
     191:	04F0      	bne        +0x4 <.LVL4+0x3:0x195[p]>

0x00000192 <.LVL4>:
     192:	0014      	ld         al, #+0x0
     193:	3400      	**prefx    0x34
     194:	B525      	st         al, @0x33B5 <sm_long_term_key_ind>
     195:	030F      	leave      #+0x3

0x00000196 <SMDistributeMasterLtk>:
     196:	E199      	tst        @0xFFE1 <register al>
     197:	06F4      	beq        +0x6 <.LVL7:0x19D[p]>
     198:	9300      	**prefx    0x93
     199:	6015      	ld         al, @0x9360 <DATA_ROMDATA_START>

0x0000019A <.LVL6>:
     19A:	0100      	**prefx    0x1
     19B:	00B4      	or         al, #+0x100
     19C:	05E0      	bra        +0x5 <.LVL8+0x2:0x1A1[p]>

0x0000019D <.LVL7>:
     19D:	9300      	**prefx    0x93
     19E:	6015      	ld         al, @0x9360 <DATA_ROMDATA_START>

0x0000019F <.LVL8>:
     19F:	FF00      	**prefx    0xFF
     1A0:	FFC4      	and        al, #0xFEFF
     1A1:	9300      	**prefx    0x93
     1A2:	6025      	st         al, @0x9360 <DATA_ROMDATA_START>
     1A3:	00E2      	bra        0x0, x

0x000001A4 <___libgatt_lib_db_4588>:
     1A4:	030B      	enter      #+0x3
     1A5:	0617      	ld         al, @(+0x6, y)
     1A6:	2CF4      	beq        +0x2C <.LVL5:0x1D2[p]>
     1A7:	9400      	**prefx    0x94
     1A8:	4615      	ld         al, @0x9446 <BSS_START>
     1A9:	2CF0      	bne        +0x2C <___libgatt_lib_db_4617:0x1D5[p]>
     1AA:	3400      	**prefx    0x34
     1AB:	A515      	ld         al, @0x33A5 <DATA_RODATA_END+0x2>
     1AC:	0284      	cmp        al, #+0x2
     1AD:	052C      	bcz        +0x5 <.LVL3:0x1B2[p]>
     1AE:	0110      	ld         ah, #+0x1

0x000001AF <.LVL2>:
     1AF:	3400      	**prefx    0x34
     1B0:	A521      	st         ah, @0x33A5 <DATA_RODATA_END+0x2>
     1B1:	04E0      	bra        +0x4 <.LVL3+0x3:0x1B5[p]>

0x000001B2 <.LVL3>:
     1B2:	0134      	add        al, #+0x1
     1B3:	3400      	**prefx    0x34
     1B4:	A525      	st         al, @0x33A5 <DATA_RODATA_END+0x2>
     1B5:	3400      	**prefx    0x34
     1B6:	A515      	ld         al, @0x33A5 <DATA_RODATA_END+0x2>
     1B7:	0284      	cmp        al, #+0x2
     1B8:	1D2C      	bcz        +0x1D <___libgatt_lib_db_4617:0x1D5[p]>
     1B9:	0114      	ld         al, #+0x1
     1BA:	9400      	**prefx    0x94
     1BB:	4625      	st         al, @0x9446 <BSS_START>
     1BC:	3400      	**prefx    0x34
     1BD:	A419      	ld         x, @0x33A4 <DATA_RODATA_END+0x1>
     1BE:	3400      	**prefx    0x34
     1BF:	A415      	ld         al, @0x33A4 <DATA_RODATA_END+0x1>
     1C0:	E100      	**prefx    0xE1
     1C1:	E138      	add        x, #-0x1F1F
     1C2:	0110      	ld         ah, #+0x1

0x000001C3 <.LVL4>:
     1C3:	0023      	st         ah, @(0x0, y)
     1C4:	8700      	**prefx    0x87
     1C5:	6934      	add        al, #-0x7897
     1C6:	0127      	st         al, @(+0x1, y)
     1C7:	2D10      	ld         ah, #+0x2D
     1C8:	C700      	**prefx    0xC7
     1C9:	C014      	ld         al, #-0x3940
     1CA:	FF2B      	st         x, @(-0x1, y)
     1CB:	FF9F      	bsr        @(-0x1, y)
     1CC:	E199      	tst        @0xFFE1 <register al>
     1CD:	08F0      	bne        +0x8 <___libgatt_lib_db_4617:0x1D5[p]>
     1CE:	0010      	ld         ah, #+0x0
     1CF:	9400      	**prefx    0x94
     1D0:	4621      	st         ah, @0x9446 <BSS_START>
     1D1:	04E0      	bra        +0x4 <___libgatt_lib_db_4617:0x1D5[p]>

0x000001D2 <.LVL5>:
     1D2:	0014      	ld         al, #+0x0
     1D3:	3400      	**prefx    0x34
     1D4:	A525      	st         al, @0x33A5 <DATA_RODATA_END+0x2>
     1D5:	8800      	**prefx    0x88
     1D6:	5010      	ld         ah, #-0x77B0

0x000001D7 <.LVL6>:
     1D7:	0223      	st         ah, @(+0x2, y)
     1D8:	030F      	leave      #+0x3

0x000001D9 <___libgatt_lib_db_4591>:
     1D9:	010B      	enter      #+0x1

0x000001DA <.LCFI1>:
     1DA:	0F17      	ld         al, @(+0xF, y)

0x000001DB <.LVL8>:
     1DB:	FB25      	st         al, @0xFFFB <(scratchpad)>
     1DC:	101B      	ld         x, @(+0x10, y)
     1DD:	F829      	st         x, @0xFFF8 <(scratchpad)>

0x000001DE <.LVL9>:
     1DE:	1417      	ld         al, @(+0x14, y)
     1DF:	FA25      	st         al, @0xFFFA <(scratchpad)>

0x000001E0 <.LVL10>:
     1E0:	E315      	ld         al, @0xFFE3 <register uxl>
     1E1:	0100      	**prefx    0x1
     1E2:	80C4      	and        al, #0x80
     1E3:	0BF4      	beq        +0xB <.LVL13:0x1EE[p]>

0x000001E4 <.LVL11>:
     1E4:	1017      	ld         al, @(+0x10, y)
     1E5:	FF00      	**prefx    0xFF
     1E6:	7FC4      	and        al, #0xFF7F
     1E7:	1027      	st         al, @(+0x10, y)
     1E8:	FA19      	ld         x, @0xFFFA <(scratchpad)>

0x000001E9 <.LVL12>:
     1E9:	0016      	ld         al, @(0x0, x)
     1EA:	FF00      	**prefx    0xFF
     1EB:	7FC4      	and        al, #0xFF7F
     1EC:	0026      	st         al, @(0x0, x)
     1ED:	29E0      	bra        +0x29 <.LVL17:0x216[p]>

0x000001EE <.LVL13>:
     1EE:	0188      	cmp        x, #+0x1

0x000001EF <.LVL14>:
     1EF:	03F4      	beq        +0x3 <.LVL14+0x3:0x1F2[p]>
     1F0:	0B88      	cmp        x, #+0xB
     1F1:	05F0      	bne        +0x5 <.LVL14+0x7:0x1F6[p]>
     1F2:	3400      	**prefx    0x34
     1F3:	A399      	tst        @0x33A3 <DATA_RODATA_END>
     1F4:	02F4      	beq        +0x2 <.LVL14+0x7:0x1F6[p]>
     1F5:	140F      	leave      #+0x14
     1F6:	FB19      	ld         x, @0xFFFB <(scratchpad)>
     1F7:	061A      	ld         x, @(+0x6, x)
     1F8:	F815      	ld         al, @0xFFF8 <(scratchpad)>
     1F9:	FF34      	add        al, #-0x1
     1FA:	F925      	st         al, @0xFFF9 <(scratchpad)>
     1FB:	0114      	ld         al, #+0x1
     1FC:	F9A1      	asl        @0xFFF9 <(scratchpad)>

0x000001FD <.LVL15>:
     1FD:	E3C5      	and        al, @0xFFE3 <register uxl>
     1FE:	18F4      	beq        +0x18 <.LVL17:0x216[p]>
     1FF:	E315      	ld         al, @0xFFE3 <register uxl>
     200:	F819      	ld         x, @0xFFF8 <(scratchpad)>
     201:	A100      	**prefx    0xA1
     202:	01C6      	and        al, @(-0x5EFF, x)
     203:	13F0      	bne        +0x13 <.LVL17:0x216[p]>
     204:	9400      	**prefx    0x94
     205:	4615      	ld         al, @0x9446 <BSS_START>
     206:	10F0      	bne        +0x10 <.LVL17:0x216[p]>
     207:	0188      	cmp        x, #+0x1
     208:	03F4      	beq        +0x3 <___libgatt_lib_db_1887+0x3:0x20B[p]>
     209:	0B88      	cmp        x, #+0xB
     20A:	0CF0      	bne        +0xC <.LVL17:0x216[p]>
     20B:	0118      	ld         x, #+0x1
     20C:	3400      	**prefx    0x34
     20D:	A329      	st         x, @0x33A3 <DATA_RODATA_END>
     20E:	3400      	**prefx    0x34
     20F:	B619      	ld         x, @0x33B6 <sm_pairing_auth_ind>
     210:	06F4      	beq        +0x6 <.LVL17:0x216[p]>
     211:	FB15      	ld         al, @0xFFFB <(scratchpad)>
     212:	FA11      	ld         ah, @0xFFFA <(scratchpad)>
     213:	FF2B      	st         x, @(-0x1, y)
     214:	FF9F      	bsr        @(-0x1, y)

0x00000215 <.LVL16>:
     215:	140F      	leave      #+0x14

0x00000216 <.LVL17>:
     216:	010F      	leave      #+0x1

0x00000217 <.LFB6>:
     217:	020B      	enter      #+0x2

0x00000218 <.LCFI2>:
     218:	3400      	**prefx    0x34
     219:	A411      	ld         ah, @0x33A4 <DATA_RODATA_END+0x1>
     21A:	8500      	**prefx    0x85
     21B:	0130      	add        ah, #-0x7AFF
     21C:	FF23      	st         ah, @(-0x1, y)
     21D:	FF9F      	bsr        @(-0x1, y)

0x0000021E <.LVL19>:
     21E:	0027      	st         al, @(0x0, y)
     21F:	14F4      	beq        +0x14 <___libgatt_lib_db_459+0x14:0x233[p]>
     220:	0014      	ld         al, #+0x0
     221:	001B      	ld         x, @(0x0, y)
     222:	2A26      	st         al, @(+0x2A, x)
     223:	3400      	**prefx    0x34
     224:	A411      	ld         ah, @0x33A4 <DATA_RODATA_END+0x1>
     225:	8800      	**prefx    0x88
     226:	0630      	add        ah, #-0x77FA
     227:	E315      	ld         al, @0xFFE3 <register uxl>
     228:	FF23      	st         ah, @(-0x1, y)
     229:	FF9F      	bsr        @(-0x1, y)
     22A:	3400      	**prefx    0x34
     22B:	A419      	ld         x, @0x33A4 <DATA_RODATA_END+0x1>
     22C:	8800      	**prefx    0x88
     22D:	1138      	add        x, #-0x77EF
     22E:	0017      	ld         al, @(0x0, y)
     22F:	0C00      	**prefx    0xC
     230:	8010      	ld         ah, #+0xB80
     231:	FF2B      	st         x, @(-0x1, y)
     232:	FF9F      	bsr        @(-0x1, y)
     233:	020F      	leave      #+0x2

0x00000234 <___libgatt_lib_db_4589>:
     234:	010B      	enter      #+0x1

0x00000235 <.LCFI3>:
     235:	9300      	**prefx    0x93
     236:	6615      	ld         al, @0x9366 <___libgatt_lib_db_18+0x1>

0x00000237 <.LVL22>:
     237:	0284      	cmp        al, #+0x2
     238:	05F4      	beq        +0x5 <.LVL22+0x6:0x23D[p]>
     239:	031B      	ld         x, @(+0x3, y)
     23A:	0014      	ld         al, #+0x0
     23B:	0526      	st         al, @(+0x5, x)
     23C:	0626      	st         al, @(+0x6, x)
     23D:	010F      	leave      #+0x1

0x0000023E <___libgatt_lib_db_4593>:
     23E:	010B      	enter      #+0x1

0x0000023F <.LCFI4>:
     23F:	0A1B      	ld         x, @(+0xA, y)
     240:	3400      	**prefx    0x34
     241:	A411      	ld         ah, @0x33A4 <DATA_RODATA_END+0x1>

0x00000242 <.LVL24>:
     242:	9700      	**prefx    0x97
     243:	8530      	add        ah, #-0x697B
     244:	0516      	ld         al, @(+0x5, x)

0x00000245 <.LVL25>:
     245:	FF23      	st         ah, @(-0x1, y)
     246:	FF9F      	bsr        @(-0x1, y)
     247:	0284      	cmp        al, #+0x2
     248:	04F0      	bne        +0x4 <.LVL25+0x7:0x24C[p]>
     249:	0114      	ld         al, #+0x1
     24A:	3400      	**prefx    0x34
     24B:	A325      	st         al, @0x33A3 <DATA_RODATA_END>
     24C:	010F      	leave      #+0x1

0x0000024D <___libgatt_lib_db_4587>:
     24D:	020B      	enter      #+0x2

0x0000024E <.LCFI5>:
     24E:	0014      	ld         al, #+0x0

0x0000024F <.LVL27>:
     24F:	3400      	**prefx    0x34
     250:	A325      	st         al, @0x33A3 <DATA_RODATA_END>
     251:	0617      	ld         al, @(+0x6, y)
     252:	8C00      	**prefx    0x8C
     253:	DC84      	cmp        al, #-0x7424
     254:	1AF0      	bne        +0x1A <.LBE11:0x26E[p]>
     255:	0517      	ld         al, @(+0x5, y)

0x00000256 <.LVL28>:
     256:	0684      	cmp        al, #+0x6
     257:	17F0      	bne        +0x17 <.LBE11:0x26E[p]>
     258:	041B      	ld         x, @(+0x4, y)

0x00000259 <.LVL29>:
     259:	051A      	ld         x, @(+0x5, x)

0x0000025A <.LVL30>:
     25A:	002B      	st         x, @(0x0, y)

0x0000025B <.LBB10>:
     25B:	3400      	**prefx    0x34
     25C:	A419      	ld         x, @0x33A4 <DATA_RODATA_END+0x1>

0x0000025D <.LBE10>:
     25D:	B700      	**prefx    0xB7
     25E:	E838      	add        x, #-0x4918
     25F:	0B00      	**prefx    0xB
     260:	D014      	ld         al, #+0xAD0

0x00000261 <.LVL31>:
     261:	0210      	ld         ah, #+0x2

0x00000262 <.LVL32>:
     262:	FF2B      	st         x, @(-0x1, y)
     263:	FF9F      	bsr        @(-0x1, y)
     264:	E119      	ld         x, @0xFFE1 <register al>

0x00000265 <.LBB11>:
     265:	0017      	ld         al, @(0x0, y)
     266:	0126      	st         al, @(+0x1, x)
     267:	3400      	**prefx    0x34
     268:	A411      	ld         ah, @0x33A4 <DATA_RODATA_END+0x1>
     269:	B600      	**prefx    0xB6
     26A:	2030      	add        ah, #-0x49E0
     26B:	E315      	ld         al, @0xFFE3 <register uxl>
     26C:	FF23      	st         ah, @(-0x1, y)
     26D:	FF9F      	bsr        @(-0x1, y)

0x0000026E <.LBE11>:
     26E:	020F      	leave      #+0x2

0x0000026F <___libgatt_lib_db_4602>:
     26F:	0F0B      	enter      #+0xF

0x00000270 <.LCFI6>:
     270:	0B27      	st         al, @(+0xB, y)
     271:	0C23      	st         ah, @(+0xC, y)
     272:	1690      	smult      #+0x16

0x00000273 <.LVL35>:
     273:	9500      	**prefx    0x95
     274:	2E34      	add        al, #-0x6AD2
     275:	0D27      	st         al, @(+0xD, y)
     276:	E119      	ld         x, @0xFFE1 <register al>
     277:	001A      	ld         x, @(0x0, x)
     278:	092B      	st         x, @(+0x9, y)
     279:	0810      	ld         ah, #+0x8
     27A:	0023      	st         ah, @(0x0, y)
     27B:	E415      	ld         al, @0xFFE4 <register uy>
     27C:	0134      	add        al, #+0x1
     27D:	0F13      	ld         ah, @(+0xF, y)
     27E:	0100      	**prefx    0x1
     27F:	8A00      	**prefx    0x8A
     280:	369C      	bsr        +0x8A36 <MemCopyPack:0x8CB6[p]>
     281:	3400      	**prefx    0x34
     282:	A419      	ld         x, @0x33A4 <DATA_RODATA_END+0x1>
     283:	8600      	**prefx    0x86
     284:	C838      	add        x, #-0x7A38
     285:	E415      	ld         al, @0xFFE4 <register uy>
     286:	0134      	add        al, #+0x1
     287:	0C13      	ld         ah, @(+0xC, y)
     288:	FF2B      	st         x, @(-0x1, y)
     289:	FF9F      	bsr        @(-0x1, y)
     28A:	0A27      	st         al, @(+0xA, y)
     28B:	0FC4      	and        al, #0xF
     28C:	0684      	cmp        al, #+0x6
     28D:	0BFC      	bcs        +0xB <.LVL39+0x1:0x298[p]>

0x0000028E <.LVL38>:
     28E:	3400      	**prefx    0x34
     28F:	A411      	ld         ah, @0x33A4 <DATA_RODATA_END+0x1>
     290:	8600      	**prefx    0x86
     291:	8030      	add        ah, #-0x7A80
     292:	0A17      	ld         al, @(+0xA, y)
     293:	FF23      	st         ah, @(-0x1, y)
     294:	FF9F      	bsr        @(-0x1, y)
     295:	9300      	**prefx    0x93
     296:	6785      	cmp        al, @0x9367 <___libgatt_lib_db_18+0x2>

0x00000297 <.LVL39>:
     297:	09F8      	bcc        +0x9 <.LVL41:0x2A0[p]>
     298:	3400      	**prefx    0x34
     299:	A411      	ld         ah, @0x33A4 <DATA_RODATA_END+0x1>
     29A:	D000      	**prefx    0xD0
     29B:	1630      	add        ah, #-0x2FEA
     29C:	0917      	ld         al, @(+0x9, y)

0x0000029D <.LVL40>:
     29D:	FF23      	st         ah, @(-0x1, y)
     29E:	FF9F      	bsr        @(-0x1, y)
     29F:	23E0      	bra        +0x23 <.LVL46:0x2C2[p]>

0x000002A0 <.LVL41>:
     2A0:	0A13      	ld         ah, @(+0xA, y)
     2A1:	0D1B      	ld         x, @(+0xD, y)
     2A2:	1522      	st         ah, @(+0x15, x)
     2A3:	109B      	tst        @(+0x10, y)
     2A4:	03F4      	beq        +0x3 <.LVL42+0x2:0x2A7[p]>

0x000002A5 <.LVL42>:
     2A5:	101B      	ld         x, @(+0x10, y)
     2A6:	2B26      	st         al, @(+0x2B, x)
     2A7:	3400      	**prefx    0x34
     2A8:	A419      	ld         x, @0x33A4 <DATA_RODATA_END+0x1>
     2A9:	9700      	**prefx    0x97
     2AA:	389A      	tst        @(-0x68C8, x)
     2AB:	10F4      	beq        +0x10 <.LVL44:0x2BB[p]>
     2AC:	3400      	**prefx    0x34
     2AD:	A411      	ld         ah, @0x33A4 <DATA_RODATA_END+0x1>
     2AE:	F821      	st         ah, @0xFFF8 <(scratchpad)>
     2AF:	0B17      	ld         al, @(+0xB, y)

0x000002B0 <.LVL43>:
     2B0:	1790      	smult      #+0x17
     2B1:	E119      	ld         x, @0xFFE1 <register al>
     2B2:	9700      	**prefx    0x97
     2B3:	D716      	ld         al, @(-0x6929, x)
     2B4:	F819      	ld         x, @0xFFF8 <(scratchpad)>
     2B5:	9700      	**prefx    0x97
     2B6:	381A      	ld         x, @(-0x68C8, x)
     2B7:	0A13      	ld         ah, @(+0xA, y)
     2B8:	FF2B      	st         x, @(-0x1, y)
     2B9:	FF9F      	bsr        @(-0x1, y)
     2BA:	08E0      	bra        +0x8 <.LVL46:0x2C2[p]>

0x000002BB <.LVL44>:
     2BB:	3400      	**prefx    0x34
     2BC:	A411      	ld         ah, @0x33A4 <DATA_RODATA_END+0x1>
     2BD:	8A00      	**prefx    0x8A
     2BE:	8530      	add        ah, #-0x767B
     2BF:	0B17      	ld         al, @(+0xB, y)

0x000002C0 <.LVL45>:
     2C0:	FF23      	st         ah, @(-0x1, y)
     2C1:	FF9F      	bsr        @(-0x1, y)

0x000002C2 <.LVL46>:
     2C2:	0F0F      	leave      #+0xF

0x000002C3 <___libgatt_lib_db_4590>:
     2C3:	050B      	enter      #+0x5

0x000002C4 <.LCFI7>:
     2C4:	0327      	st         al, @(+0x3, y)
     2C5:	3400      	**prefx    0x34
     2C6:	A411      	ld         ah, @0x33A4 <DATA_RODATA_END+0x1>
     2C7:	8500      	**prefx    0x85
     2C8:	4430      	add        ah, #-0x7ABC
     2C9:	E119      	ld         x, @0xFFE1 <register al>
     2CA:	0016      	ld         al, @(0x0, x)

0x000002CB <.LVL48>:
     2CB:	FF23      	st         ah, @(-0x1, y)
     2CC:	FF9F      	bsr        @(-0x1, y)
     2CD:	0227      	st         al, @(+0x2, y)
     2CE:	9300      	**prefx    0x93
     2CF:	6799      	tst        @0x9367 <___libgatt_lib_db_18+0x2>
     2D0:	24F4      	beq        +0x24 <.LVL51+0x1:0x2F4[p]>
     2D1:	029B      	tst        @(+0x2, y)
     2D2:	18F4      	beq        +0x18 <___libgatt_lib_db_4253+0x1F:0x2EA[p]>
     2D3:	021B      	ld         x, @(+0x2, y)
     2D4:	0616      	ld         al, @(+0x6, x)
     2D5:	1C00      	**prefx    0x1C
     2D6:	0FC4      	and        al, #0x1C0F
     2D7:	1000      	**prefx    0x10
     2D8:	0084      	cmp        al, #+0x1000
     2D9:	11F0      	bne        +0x11 <___libgatt_lib_db_4253+0x1F:0x2EA[p]>
     2DA:	3400      	**prefx    0x34
     2DB:	A415      	ld         al, @0x33A4 <DATA_RODATA_END+0x1>
     2DC:	E119      	ld         x, @0xFFE1 <register al>
     2DD:	D000      	**prefx    0xD0
     2DE:	4938      	add        x, #-0x2FB7
     2DF:	F829      	st         x, @0xFFF8 <(scratchpad)>
     2E0:	0217      	ld         al, @(+0x2, y)
     2E1:	0934      	add        al, #+0x9
     2E2:	0227      	st         al, @(+0x2, y)
     2E3:	031B      	ld         x, @(+0x3, y)
     2E4:	0016      	ld         al, @(0x0, x)
     2E5:	0213      	ld         ah, @(+0x2, y)
     2E6:	F819      	ld         x, @0xFFF8 <(scratchpad)>
     2E7:	FF2B      	st         x, @(-0x1, y)
     2E8:	FF9F      	bsr        @(-0x1, y)
     2E9:	28E0      	bra        +0x28 <.LVL56:0x311[p]>
     2EA:	3400      	**prefx    0x34
     2EB:	A411      	ld         ah, @0x33A4 <DATA_RODATA_END+0x1>
     2EC:	9200      	**prefx    0x92
     2ED:	3730      	add        ah, #-0x6DC9
     2EE:	031B      	ld         x, @(+0x3, y)
     2EF:	0016      	ld         al, @(0x0, x)
     2F0:	FF23      	st         ah, @(-0x1, y)
     2F1:	FF9F      	bsr        @(-0x1, y)
     2F2:	FF84      	cmp        al, #-0x1

0x000002F3 <.LVL51>:
     2F3:	0AF0      	bne        +0xA <.LVL53:0x2FD[p]>
     2F4:	3400      	**prefx    0x34
     2F5:	A411      	ld         ah, @0x33A4 <DATA_RODATA_END+0x1>
     2F6:	D000      	**prefx    0xD0
     2F7:	1630      	add        ah, #-0x2FEA
     2F8:	031B      	ld         x, @(+0x3, y)
     2F9:	0016      	ld         al, @(0x0, x)

0x000002FA <.LVL52>:
     2FA:	FF23      	st         ah, @(-0x1, y)
     2FB:	FF9F      	bsr        @(-0x1, y)
     2FC:	15E0      	bra        +0x15 <.LVL56:0x311[p]>

0x000002FD <.LVL53>:
     2FD:	3400      	**prefx    0x34
     2FE:	B519      	ld         x, @0x33B5 <sm_long_term_key_ind>
     2FF:	F829      	st         x, @0xFFF8 <(scratchpad)>
     300:	031B      	ld         x, @(+0x3, y)
     301:	0912      	ld         ah, @(+0x9, x)
     302:	F899      	tst        @0xFFF8 <(scratchpad)>
     303:	07F4      	beq        +0x7 <.LVL55:0x30A[p]>
     304:	0138      	add        x, #+0x1
     305:	002B      	st         x, @(0x0, y)
     306:	F819      	ld         x, @0xFFF8 <(scratchpad)>
     307:	FF2B      	st         x, @(-0x1, y)
     308:	FF9F      	bsr        @(-0x1, y)

0x00000309 <.LVL54>:
     309:	08E0      	bra        +0x8 <.LVL56:0x311[p]>

0x0000030A <.LVL55>:
     30A:	031B      	ld         x, @(+0x3, y)
     30B:	0138      	add        x, #+0x1
     30C:	002B      	st         x, @(0x0, y)
     30D:	021B      	ld         x, @(+0x2, y)
     30E:	012B      	st         x, @(+0x1, y)
     30F:	FF00      	**prefx    0xFF
     310:	5F9C      	bsr        -0xA1 <___libgatt_lib_db_4602:0x26F[p]>

0x00000311 <.LVL56>:
     311:	050F      	leave      #+0x5

0x00000312 <___libgatt_lib_db_4592>:
     312:	080B      	enter      #+0x8

0x00000313 <.LCFI8>:
     313:	0A17      	ld         al, @(+0xA, y)

0x00000314 <.LVL58>:
     314:	0627      	st         al, @(+0x6, y)
     315:	0B1B      	ld         x, @(+0xB, y)
     316:	052B      	st         x, @(+0x5, y)
     317:	0016      	ld         al, @(0x0, x)
     318:	0984      	cmp        al, #+0x9
     319:	2AF0      	bne        +0x2A <.LVL64:0x343[p]>
     31A:	061B      	ld         x, @(+0x6, y)
     31B:	0516      	ld         al, @(+0x5, x)
     31C:	0010      	ld         ah, #+0x0

0x0000031D <.LVL61>:
     31D:	0009      	**unsigned
     31E:	0394      	udiv       #0x3
     31F:	1690      	smult      #+0x16
     320:	9500      	**prefx    0x95
     321:	2F34      	add        al, #-0x6AD1
     322:	F825      	st         al, @0xFFF8 <(scratchpad)>

0x00000323 <.LVL62>:
     323:	E119      	ld         x, @0xFFE1 <register al>
     324:	0016      	ld         al, @(0x0, x)
     325:	0184      	cmp        al, #+0x1
     326:	1DF0      	bne        +0x1D <.LVL64:0x343[p]>
     327:	0416      	ld         al, @(+0x4, x)
     328:	C000      	**prefx    0xC0
     329:	00C4      	and        al, #0xC000
     32A:	C000      	**prefx    0xC0
     32B:	0084      	cmp        al, #-0x4000
     32C:	17F0      	bne        +0x17 <.LVL64:0x343[p]>
     32D:	0114      	ld         al, #+0x1
     32E:	051B      	ld         x, @(+0x5, y)
     32F:	0126      	st         al, @(+0x1, x)
     330:	3400      	**prefx    0x34
     331:	A419      	ld         x, @0x33A4 <DATA_RODATA_END+0x1>
     332:	B900      	**prefx    0xB9
     333:	1738      	add        x, #-0x46E9
     334:	F815      	ld         al, @0xFFF8 <(scratchpad)>
     335:	0134      	add        al, #+0x1
     336:	E411      	ld         ah, @0xFFE4 <register uy>
     337:	0230      	add        ah, #+0x2
     338:	FF2B      	st         x, @(-0x1, y)
     339:	FF9F      	bsr        @(-0x1, y)

0x0000033A <.LVL63>:
     33A:	0517      	ld         al, @(+0x5, y)
     33B:	0234      	add        al, #+0x2
     33C:	0618      	ld         x, #+0x6
     33D:	002B      	st         x, @(0x0, y)
     33E:	E411      	ld         ah, @0xFFE4 <register uy>
     33F:	0230      	add        ah, #+0x2
     340:	0100      	**prefx    0x1
     341:	8A00      	**prefx    0x8A
     342:	9E9C      	bsr        +0x899E <MemCopyUnPack:0x8CE0[p]>

0x00000343 <.LVL64>:
     343:	3400      	**prefx    0x34
     344:	A411      	ld         ah, @0x33A4 <DATA_RODATA_END+0x1>

0x00000345 <.LVL65>:
     345:	E000      	**prefx    0xE0
     346:	1930      	add        ah, #-0x1FE7
     347:	061B      	ld         x, @(+0x6, y)
     348:	2A16      	ld         al, @(+0x2A, x)
     349:	FF23      	st         ah, @(-0x1, y)
     34A:	FF9F      	bsr        @(-0x1, y)

0x0000034B <.LVL66>:
     34B:	3400      	**prefx    0x34
     34C:	A419      	ld         x, @0x33A4 <DATA_RODATA_END+0x1>
     34D:	E100      	**prefx    0xE1
     34E:	E138      	add        x, #-0x1F1F
     34F:	0114      	ld         al, #+0x1
     350:	0027      	st         al, @(0x0, y)
     351:	0200      	**prefx    0x2
     352:	1714      	ld         al, #+0x217
     353:	0127      	st         al, @(+0x1, y)
     354:	0200      	**prefx    0x2
     355:	C910      	ld         ah, #+0x1C9
     356:	C400      	**prefx    0xC4
     357:	8014      	ld         al, #-0x3C80
     358:	FF2B      	st         x, @(-0x1, y)
     359:	FF9F      	bsr        @(-0x1, y)
     35A:	061B      	ld         x, @(+0x6, y)
     35B:	2A26      	st         al, @(+0x2A, x)
     35C:	3400      	**prefx    0x34
     35D:	A415      	ld         al, @0x33A4 <DATA_RODATA_END+0x1>
     35E:	F825      	st         al, @0xFFF8 <(scratchpad)>
     35F:	051B      	ld         x, @(+0x5, y)
     360:	0016      	ld         al, @(0x0, x)
     361:	E119      	ld         x, @0xFFE1 <register al>
     362:	A100      	**prefx    0xA1
     363:	D412      	ld         ah, @(-0x5F2C, x)
     364:	F815      	ld         al, @0xFFF8 <(scratchpad)>
     365:	9600      	**prefx    0x96
     366:	F234      	add        al, #-0x6A0E
     367:	F825      	st         al, @0xFFF8 <(scratchpad)>
     368:	061B      	ld         x, @(+0x6, y)
     369:	0516      	ld         al, @(+0x5, x)
     36A:	051B      	ld         x, @(+0x5, y)
     36B:	002B      	st         x, @(0x0, y)
     36C:	F819      	ld         x, @0xFFF8 <(scratchpad)>
     36D:	FF2B      	st         x, @(-0x1, y)
     36E:	FF9F      	bsr        @(-0x1, y)
     36F:	8400      	**prefx    0x84
     370:	CF14      	ld         al, #-0x7C31
     371:	0727      	st         al, @(+0x7, y)
     372:	080F      	leave      #+0x8

0x00000373 <___libgatt_lib_db_4604>:
     373:	010B      	enter      #+0x1
     374:	E199      	tst        @0xFFE1 <register al>
     375:	03F4      	beq        +0x3 <___libgatt_lib_db_4604+0x5:0x378[p]>
     376:	0484      	cmp        al, #+0x4
     377:	04F0      	bne        +0x4 <___libgatt_lib_db_4604+0x8:0x37B[p]>
     378:	0018      	ld         x, #+0x0
     379:	3400      	**prefx    0x34
     37A:	A329      	st         x, @0x33A3 <DATA_RODATA_END>
     37B:	3400      	**prefx    0x34
     37C:	A619      	ld         x, @0x33A6 <DATA_RODATA_END+0x3>
     37D:	8500      	**prefx    0x85
     37E:	9C38      	add        x, #-0x7B64
     37F:	FF2B      	st         x, @(-0x1, y)
     380:	FF9F      	bsr        @(-0x1, y)

0x00000381 <.LVL1>:
     381:	010F      	leave      #+0x1

0x00000382 <AppPowerOnReset>:
void AppPowerOnReset(void)
{
    /* Code that is only executed after a power-on reset or firmware panic
     * should be implemented here - e.g. configuring application constants
     */
}
     382:	00E2      	bra        0x0, x

0x00000383 <AppProcessSystemEvent>:
 *      Nothing
 *----------------------------------------------------------------------------*/
void AppProcessSystemEvent(sys_event_id id, void *data)
{
    /* This application does not process any system events */
}
     383:	00E2      	bra        0x0, x

0x00000384 <appGattSignalLmAdvertisingReport>:
 *  RETURNS
 *      Nothing
 *----------------------------------------------------------------------------*/
static void appGattSignalLmAdvertisingReport(
                                       LM_EV_ADVERTISING_REPORT_T *p_event_data)
{
     384:	230B      	enter      #+0x23
     385:	2127      	st         al, @(+0x21, y)
   /* bool        service_found = FALSE;*/
    uint16      adv_data[ADVSCAN_MAX_PAYLOAD] = {0};
     386:	1F14      	ld         al, #+0x1F
     387:	0027      	st         al, @(0x0, y)
     388:	E415      	ld         al, @0xFFE4 <register uy>
     389:	0234      	add        al, #+0x2
     38A:	0010      	ld         ah, #+0x0
     38B:	0100      	**prefx    0x1
     38C:	8A00      	**prefx    0x8A
     38D:	809C      	bsr        +0x8980 <MemSet:0x8D0D[p]>
             * desired service UUID is present. We are interested only in 128 
             * bit UUIDs.
             */

            /* Check if the advertisement data contains any 128 bit UUID list */
            size = GapLsFindAdType(&p_event_data->data,
     38E:	2117      	ld         al, @(+0x21, y)
     38F:	0134      	add        al, #+0x1
     390:	2127      	st         al, @(+0x21, y)
     391:	E415      	ld         al, @0xFFE4 <register uy>
     392:	0234      	add        al, #+0x2
     393:	0027      	st         al, @(0x0, y)
     394:	1F14      	ld         al, #+0x1F
     395:	0127      	st         al, @(+0x1, y)
     396:	2117      	ld         al, @(+0x21, y)
     397:	0710      	ld         ah, #+0x7
     398:	0100      	**prefx    0x1
     399:	8B00      	**prefx    0x8B
     39A:	429C      	bsr        +0x8B42 <GapLsFindAdType:0x8EDC[p]>
              */
               /* DeviceFound(&device_address);
            }*/
        
        
}
     39B:	230F      	leave      #+0x23

0x0000039C <AppProcessLmEvent>:
 *  RETURNS
 *      Always returns TRUE. See the Application module in the Firmware Library
 *      documentation for more information.
 *----------------------------------------------------------------------------*/
bool AppProcessLmEvent(lm_event_code event_code, LM_EVENT_T *p_event_data)
{
     39C:	010B      	enter      #+0x1
    /* This application does not process any LM-specific events */
    switch (event_code)
     39D:	3F84      	cmp        al, #+0x3F
     39E:	03F0      	bne        +0x3 <AppProcessLmEvent+0x5:0x3A1[p]>
        case LM_EV_ADVERTISING_REPORT:
        {
            /* This event is raised when an advertisement or scan response is
             * received
             */
            appGattSignalLmAdvertisingReport(
     39F:	E015      	ld         al, @0xFFE0 <register ah>
     3A0:	E49C      	bsr        -0x1C <appGattSignalLmAdvertisingReport:0x384[p]>
        default:
        break;
    }
    return TRUE;

}
     3A1:	0114      	ld         al, #+0x1
     3A2:	010F      	leave      #+0x1

0x000003A3 <AppInit>:
 *
 *  RETURNS
 *      Nothing
 *----------------------------------------------------------------------------*/
void AppInit(sleep_state last_sleep_state)
{
     3A3:	040B      	enter      #+0x4
    /* Initialise communications */
GattInit();
     3A4:	189C      	bsr        +0x18 <GattInit:0x3BC[p]>
GapSetMode(gap_role_central,
     3A5:	0114      	ld         al, #+0x1
     3A6:	0027      	st         al, @(0x0, y)
     3A7:	0214      	ld         al, #+0x2
     3A8:	0127      	st         al, @(+0x1, y)
     3A9:	0014      	ld         al, #+0x0
     3AA:	0227      	st         al, @(+0x2, y)
     3AB:	0414      	ld         al, #+0x4
     3AC:	0110      	ld         ah, #+0x1
     3AD:	0100      	**prefx    0x1
     3AE:	8A00      	**prefx    0x8A
     3AF:	4D9C      	bsr        +0x8A4D <GapSetMode:0x8DFC[p]>
               gap_mode_discover_no,
               gap_mode_connect_no,
               gap_mode_bond_yes,
               gap_mode_security_none);
            GapSetScanType(ls_scan_type_active);
     3B0:	0114      	ld         al, #+0x1
     3B1:	0100      	**prefx    0x1
     3B2:	8B00      	**prefx    0x8B
     3B3:	169C      	bsr        +0x8B16 <GapSetScanType:0x8EC9[p]>
           
            LsStartStopScan(TRUE,
     3B4:	0014      	ld         al, #+0x0
     3B5:	0027      	st         al, @(0x0, y)
     3B6:	0114      	ld         al, #+0x1
     3B7:	0010      	ld         ah, #+0x0
     3B8:	0100      	**prefx    0x1
     3B9:	8D00      	**prefx    0x8D
     3BA:	9D9C      	bsr        +0x8C9D <LsStartStopScan:0x9057[p]>
                    whitelist_disabled,
                    ls_addr_type_public); /* Scan using public address */


         
}
     3BB:	040F      	leave      #+0x4

0x000003BC <GattInit>:
     3BC:	020B      	enter      #+0x2
     3BD:	0100      	**prefx    0x1
     3BE:	9000      	**prefx    0x90
     3BF:	0D9C      	bsr        +0x900D <___libgatt_lib_db_74:0x93CC[p]>
     3C0:	0100      	**prefx    0x1
     3C1:	9200      	**prefx    0x92
     3C2:	119C      	bsr        +0x9211 <l2cap_init:0x95D3[p]>
     3C3:	0100      	**prefx    0x1
     3C4:	8400      	**prefx    0x84
     3C5:	8D9C      	bsr        +0x838D <___libgatt_lib_db_465:0x8752[p]>
     3C6:	FE00      	**prefx    0xFE
     3C7:	A19C      	bsr        -0x25F <___libgatt_lib_db_476:0x168[p]>
     3C8:	0600      	**prefx    0x6
     3C9:	0714      	ld         al, #+0x607
     3CA:	9300      	**prefx    0x93
     3CB:	6025      	st         al, @0x9360 <DATA_ROMDATA_START>
     3CC:	0100      	**prefx    0x1
     3CD:	9600      	**prefx    0x96
     3CE:	AE9C      	bsr        +0x95AE <___libgatt_lib_db_139:0x997C[p]>
     3CF:	2E18      	ld         x, #+0x2E
     3D0:	002B      	st         x, @(0x0, y)
     3D1:	9700      	**prefx    0x97
     3D2:	D714      	ld         al, #-0x6929
     3D3:	0010      	ld         ah, #+0x0
     3D4:	0100      	**prefx    0x1
     3D5:	8900      	**prefx    0x89
     3D6:	379C      	bsr        +0x8937 <MemSet:0x8D0D[p]>
     3D7:	FF14      	ld         al, #-0x1
     3D8:	9700      	**prefx    0x97
     3D9:	D718      	ld         x, #-0x6929
     3DA:	0026      	st         al, @(0x0, x)
     3DB:	9700      	**prefx    0x97
     3DC:	EE25      	st         al, @0x96EE <___libgatt_lib_db_127+0xC>
     3DD:	3F9C      	bsr        +0x3F <___libgatt_lib_db_4554:0x41C[p]>
     3DE:	020F      	leave      #+0x2

0x000003DF <ram_app_init>:
     3DF:	020B      	enter      #+0x2
     3E0:	1814      	ld         al, #+0x18
     3E1:	0027      	st         al, @(0x0, y)
     3E2:	3400      	**prefx    0x34
     3E3:	A314      	ld         al, #+0x33A3
     3E4:	0010      	ld         ah, #+0x0
     3E5:	0100      	**prefx    0x1
     3E6:	8900      	**prefx    0x89
     3E7:	269C      	bsr        +0x8926 <MemSet:0x8D0D[p]>
     3E8:	0400      	**prefx    0x4
     3E9:	8214      	ld         al, #+0x382
     3EA:	0100      	**prefx    0x1
     3EB:	E400      	**prefx    0xE4
     3EC:	9D9C      	bsr        +0xE39D <___libgatt_lib_db_4323:0xE789[p]>
     3ED:	0400      	**prefx    0x4
     3EE:	A314      	ld         al, #+0x3A3
     3EF:	0100      	**prefx    0x1
     3F0:	E400      	**prefx    0xE4
     3F1:	9B9C      	bsr        +0xE39B <___libgatt_lib_db_4322:0xE78C[p]>
     3F2:	0400      	**prefx    0x4
     3F3:	8314      	ld         al, #+0x383
     3F4:	0100      	**prefx    0x1
     3F5:	E400      	**prefx    0xE4
     3F6:	999C      	bsr        +0xE399 <___libgatt_lib_db_4324:0xE78F[p]>
     3F7:	0400      	**prefx    0x4
     3F8:	1114      	ld         al, #+0x411
     3F9:	0100      	**prefx    0x1
     3FA:	E500      	**prefx    0xE5
     3FB:	7B9C      	bsr        +0xE57B <___libgatt_lib_db_4366:0xE976[p]>
     3FC:	0100      	**prefx    0x1
     3FD:	F500      	**prefx    0xF5
     3FE:	959C      	bsr        +0xF495 <IdGetRomBuild:0xF893[p]>
     3FF:	0200      	**prefx    0x2
     400:	FB84      	cmp        al, #+0x1FB
     401:	05F4      	beq        +0x5 <___libgatt_lib_db_1109+0x6:0x406[p]>
     402:	1D14      	ld         al, #+0x1D
     403:	0100      	**prefx    0x1
     404:	E500      	**prefx    0xE5
     405:	159C      	bsr        +0xE515 <fault:0xE91A[p]>
     406:	3300      	**prefx    0x33
     407:	5B15      	ld         al, @0x335B <ram_build_identifier_integer>
     408:	0100      	**prefx    0x1
     409:	F500      	**prefx    0xF5
     40A:	869C      	bsr        +0xF486 <___libgatt_lib_db_4492:0xF890[p]>
     40B:	0400      	**prefx    0x4
     40C:	9C14      	ld         al, #+0x39C
     40D:	0100      	**prefx    0x1
     40E:	9100      	**prefx    0x91
     40F:	AB9C      	bsr        +0x90AB <installAppProcessLmEvent:0x94BA[p]>
     410:	020F      	leave      #+0x2

0x00000411 <___libgatt_lib_db_4364>:
     411:	1114      	ld         al, #+0x11
     412:	F700      	**prefx    0xF7
     413:	F525      	st         al, @0xF6F5 <___libgatt_lib_db_1861>
     414:	5100      	**prefx    0x51
     415:	D714      	ld         al, #+0x50D7
     416:	F600      	**prefx    0xF6
     417:	3525      	st         al, @0xF635 <___libgatt_lib_db_1862>
     418:	00E2      	bra        0x0, x

0x00000419 <IdGetLlVerBtle>:
     419:	A000      	**prefx    0xA0
     41A:	CE15      	ld         al, @0x9FCE <DATA_CSTORE_START+0x4A>
     41B:	00E2      	bra        0x0, x

0x0000041C <___libgatt_lib_db_4554>:
     41C:	0400      	**prefx    0x4
     41D:	2314      	ld         al, #+0x423
     41E:	0500      	**prefx    0x5
     41F:	D510      	ld         ah, #+0x4D5
     420:	0100      	**prefx    0x1
     421:	B200      	**prefx    0xB2
     422:	B8E0      	bra        +0xB1B8 <___libgatt_lib_db_3959:0xB5DA[p]>

0x00000423 <.LFB6>:
     423:	030B      	enter      #+0x3
     424:	0027      	st         al, @(0x0, y)
     425:	0123      	st         ah, @(+0x1, y)
     426:	3E84      	cmp        al, #+0x3E
     427:	1EF4      	beq        +0x1E <.LFB6+0x22:0x445[p]>
     428:	3F84      	cmp        al, #+0x3F
     429:	04F8      	bcc        +0x4 <.LFB6+0xA:0x42D[p]>
     42A:	0584      	cmp        al, #+0x5
     42B:	23F0      	bne        +0x23 <.LFB6+0x2B:0x44E[p]>
     42C:	1BE0      	bra        +0x1B <.LFB6+0x24:0x447[p]>
     42D:	0017      	ld         al, @(0x0, y)
     42E:	4284      	cmp        al, #+0x42
     42F:	05F4      	beq        +0x5 <.LFB6+0x11:0x434[p]>
     430:	0B00      	**prefx    0xB
     431:	B684      	cmp        al, #+0xAB6
     432:	1CF0      	bne        +0x1C <.LFB6+0x2B:0x44E[p]>
     433:	07E0      	bra        +0x7 <.LFB6+0x17:0x43A[p]>
     434:	011B      	ld         x, @(+0x1, y)
     435:	0138      	add        x, #+0x1
     436:	E315      	ld         al, @0xFFE3 <register uxl>
     437:	FF00      	**prefx    0xFF
     438:	8B9C      	bsr        -0x175 <___libgatt_lib_db_4590:0x2C3[p]>
     439:	0AE0      	bra        +0xA <.LFB6+0x20:0x443[p]>
     43A:	011B      	ld         x, @(+0x1, y)
     43B:	0116      	ld         al, @(+0x1, x)
     43C:	0100      	**prefx    0x1
     43D:	8E00      	**prefx    0x8E
     43E:	F99C      	bsr        +0x8DF9 <___libgatt_lib_db_40:0x9237[p]>
     43F:	011B      	ld         x, @(+0x1, y)
     440:	0126      	st         al, @(+0x1, x)
     441:	FF84      	cmp        al, #-0x1
     442:	0CF0      	bne        +0xC <.LFB6+0x2B:0x44E[p]>
     443:	0114      	ld         al, #+0x1
     444:	0FE0      	bra        +0xF <.LFB6+0x30:0x453[p]>
     445:	0F9C      	bsr        +0xF <___libgatt_lib_db_4563:0x454[p]>
     446:	08E0      	bra        +0x8 <.LFB6+0x2B:0x44E[p]>
     447:	0014      	ld         al, #+0x0
     448:	3400      	**prefx    0x34
     449:	AB25      	st         al, @0x33AB <patch_rx_timing_report>
     44A:	3400      	**prefx    0x34
     44B:	AC25      	st         al, @0x33AC <patch_pending_mode>
     44C:	3400      	**prefx    0x34
     44D:	AA25      	st         al, @0x33AA <patch_pending>
     44E:	0017      	ld         al, @(0x0, y)
     44F:	0113      	ld         ah, @(+0x1, y)
     450:	0100      	**prefx    0x1
     451:	8F00      	**prefx    0x8F
     452:	169C      	bsr        +0x8F16 <___libgatt_lib_db_73:0x9368[p]>
     453:	030F      	leave      #+0x3

0x00000454 <___libgatt_lib_db_4563>:
     454:	010B      	enter      #+0x1
     455:	9400      	**prefx    0x94
     456:	6E15      	ld         al, @0x946E <___libgatt_lib_db_79+0x1>
     457:	0AF4      	beq        +0xA <___libgatt_lib_db_4563+0xD:0x461[p]>
     458:	3400      	**prefx    0x34
     459:	A711      	ld         ah, @0x33A7 <DATA_RODATA_END+0x4>
     45A:	E000      	**prefx    0xE0
     45B:	1930      	add        ah, #-0x1FE7
     45C:	FF23      	st         ah, @(-0x1, y)
     45D:	FF9F      	bsr        @(-0x1, y)
     45E:	0014      	ld         al, #+0x0
     45F:	9400      	**prefx    0x94
     460:	6E25      	st         al, @0x946E <___libgatt_lib_db_79+0x1>
     461:	010F      	leave      #+0x1

0x00000462 <.LFB7>:
     462:	020B      	enter      #+0x2
     463:	9300      	**prefx    0x93
     464:	6519      	ld         x, @0x9365 <___libgatt_lib_db_18>
     465:	9300      	**prefx    0x93
     466:	6815      	ld         al, @0x9368 <___libgatt_lib_db_73>
     467:	F825      	st         al, @0xFFF8 <(scratchpad)>
     468:	9400      	**prefx    0x94
     469:	8915      	ld         al, @0x9389 <___libgatt_lib_db_73+0x21>
     46A:	F925      	st         al, @0xFFF9 <(scratchpad)>
     46B:	3400      	**prefx    0x34
     46C:	0311      	ld         ah, @0x3403 <DATA_BSS_APP_END+0x48>
     46D:	05F0      	bne        +0x5 <.LFB7+0x10:0x472[p]>
     46E:	9300      	**prefx    0x93
     46F:	6915      	ld         al, @0x9369 <___libgatt_lib_db_73+0x1>
     470:	0184      	cmp        al, #+0x1
     471:	35F0      	bne        +0x35 <.LFB7+0x44:0x4A6[p]>
     472:	F999      	tst        @0xFFF9 <(scratchpad)>
     473:	1AF4      	beq        +0x1A <.LFB7+0x2B:0x48D[p]>
     474:	E099      	tst        @0xFFE0 <register ah>
     475:	18F4      	beq        +0x18 <.LFB7+0x2B:0x48D[p]>
     476:	9300      	**prefx    0x93
     477:	6B15      	ld         al, @0x936B <___libgatt_lib_db_73+0x3>
     478:	0184      	cmp        al, #+0x1
     479:	2DF0      	bne        +0x2D <.LFB7+0x44:0x4A6[p]>
     47A:	9300      	**prefx    0x93
     47B:	6C15      	ld         al, @0x936C <___libgatt_lib_db_73+0x4>
     47C:	FCC4      	and        al, #0xFFFC
     47D:	9300      	**prefx    0x93
     47E:	6C25      	st         al, @0x936C <___libgatt_lib_db_73+0x4>
     47F:	FE38      	add        x, #-0x2
     480:	0388      	cmp        x, #+0x3
     481:	0CF8      	bcc        +0xC <.LFB7+0x2B:0x48D[p]>
     482:	F819      	ld         x, @0xFFF8 <(scratchpad)>
     483:	0288      	cmp        x, #+0x2
     484:	03F0      	bne        +0x3 <.LFB7+0x25:0x487[p]>
     485:	01B4      	or         al, #+0x1
     486:	05E0      	bra        +0x5 <.LFB7+0x29:0x48B[p]>
     487:	F819      	ld         x, @0xFFF8 <(scratchpad)>
     488:	0388      	cmp        x, #+0x3
     489:	04F0      	bne        +0x4 <.LFB7+0x2B:0x48D[p]>
     48A:	02B4      	or         al, #+0x2
     48B:	9300      	**prefx    0x93
     48C:	6C25      	st         al, @0x936C <___libgatt_lib_db_73+0x4>
     48D:	3400      	**prefx    0x34
     48E:	A719      	ld         x, @0x33A7 <DATA_RODATA_END+0x4>
     48F:	CF00      	**prefx    0xCF
     490:	E438      	add        x, #-0x311C
     491:	0014      	ld         al, #+0x0
     492:	0027      	st         al, @(0x0, y)
     493:	9300      	**prefx    0x93
     494:	6A14      	ld         al, #-0x6C96
     495:	F911      	ld         ah, @0xFFF9 <(scratchpad)>
     496:	FF2B      	st         x, @(-0x1, y)
     497:	FF9F      	bsr        @(-0x1, y)
     498:	9400      	**prefx    0x94
     499:	AD11      	ld         ah, @0x93AD <___libgatt_lib_db_73+0x45>
     49A:	3400      	**prefx    0x34
     49B:	A719      	ld         x, @0x33A7 <DATA_RODATA_END+0x4>
     49C:	CF00      	**prefx    0xCF
     49D:	E438      	add        x, #-0x311C
     49E:	0114      	ld         al, #+0x1
     49F:	0027      	st         al, @(0x0, y)
     4A0:	9400      	**prefx    0x94
     4A1:	8E14      	ld         al, #-0x6C72
     4A2:	FF2B      	st         x, @(-0x1, y)
     4A3:	FF9F      	bsr        @(-0x1, y)
     4A4:	0014      	ld         al, #+0x0
     4A5:	02E0      	bra        +0x2 <.LFB7+0x45:0x4A7[p]>
     4A6:	0C14      	ld         al, #+0xC
     4A7:	020F      	leave      #+0x2

0x000004A8 <___libgatt_lib_db_4564>:
     4A8:	010B      	enter      #+0x1
     4A9:	B99C      	bsr        -0x47 <.LFB7:0x462[p]>
     4AA:	E199      	tst        @0xFFE1 <register al>
     4AB:	05F0      	bne        +0x5 <___libgatt_lib_db_4564+0x8:0x4B0[p]>
     4AC:	9000      	**prefx    0x90
     4AD:	8F14      	ld         al, #-0x7071
     4AE:	0027      	st         al, @(0x0, y)
     4AF:	03E0      	bra        +0x3 <___libgatt_lib_db_4564+0xA:0x4B2[p]>
     4B0:	0C14      	ld         al, #+0xC
     4B1:	0B0F      	leave      #+0xB
     4B2:	010F      	leave      #+0x1

0x000004B3 <___libgatt_lib_db_4568>:
     4B3:	010B      	enter      #+0x1
     4B4:	9300      	**prefx    0x93
     4B5:	6515      	ld         al, @0x9365 <___libgatt_lib_db_18>
     4B6:	0384      	cmp        al, #+0x3
     4B7:	0BF0      	bne        +0xB <___libgatt_lib_db_4568+0xF:0x4C2[p]>
     4B8:	3400      	**prefx    0x34
     4B9:	A815      	ld         al, @0x33A8 <DATA_RODATA_END+0x5>
     4BA:	CD00      	**prefx    0xCD
     4BB:	6734      	add        al, #-0x3299
     4BC:	FF27      	st         al, @(-0x1, y)
     4BD:	FF9F      	bsr        @(-0x1, y)
     4BE:	E199      	tst        @0xFFE1 <register al>
     4BF:	03F4      	beq        +0x3 <___libgatt_lib_db_4568+0xF:0x4C2[p]>
     4C0:	0C14      	ld         al, #+0xC
     4C1:	080F      	leave      #+0x8
     4C2:	010F      	leave      #+0x1

0x000004C3 <___libgatt_lib_db_4569>:
     4C3:	010B      	enter      #+0x1
     4C4:	0A17      	ld         al, @(+0xA, y)
     4C5:	0FC4      	and        al, #0xF
     4C6:	0584      	cmp        al, #+0x5
     4C7:	0AF0      	bne        +0xA <___libgatt_lib_db_4569+0xE:0x4D1[p]>
     4C8:	FF00      	**prefx    0xFF
     4C9:	509C      	bsr        -0xB0 <IdGetLlVerBtle:0x419[p]>
     4CA:	0684      	cmp        al, #+0x6
     4CB:	032C      	bcz        +0x3 <___libgatt_lib_db_4569+0xB:0x4CE[p]>
     4CC:	0114      	ld         al, #+0x1
     4CD:	05E0      	bra        +0x5 <___libgatt_lib_db_4569+0xF:0x4D2[p]>
     4CE:	1114      	ld         al, #+0x11
     4CF:	0C0F      	leave      #+0xC
     4D0:	04E0      	bra        +0x4 <___libgatt_lib_db_4569+0x11:0x4D4[p]>
     4D1:	0014      	ld         al, #+0x0
     4D2:	3400      	**prefx    0x34
     4D3:	B725      	st         al, @0x33B7 <enable_lowduty_directed_adv>
     4D4:	010F      	leave      #+0x1

0x000004D5 <___libgatt_lib_db_4573>:
     4D5:	030B      	enter      #+0x3
     4D6:	F925      	st         al, @0xFFF9 <(scratchpad)>
     4D7:	F821      	st         ah, @0xFFF8 <(scratchpad)>
     4D8:	0313      	ld         ah, @(+0x3, y)
     4D9:	0417      	ld         al, @(+0x4, y)
     4DA:	FA25      	st         al, @0xFFFA <(scratchpad)>
     4DB:	16F4      	beq        +0x16 <___libgatt_lib_db_4573+0x1C:0x4F1[p]>
     4DC:	0380      	cmp        ah, #+0x3
     4DD:	142C      	bcz        +0x14 <___libgatt_lib_db_4573+0x1C:0x4F1[p]>
     4DE:	1C80      	cmp        ah, #+0x1C
     4DF:	12F8      	bcc        +0x12 <___libgatt_lib_db_4573+0x1C:0x4F1[p]>
     4E0:	E015      	ld         al, @0xFFE0 <register ah>
     4E1:	FC34      	add        al, #-0x4
     4E2:	F819      	ld         x, @0xFFF8 <(scratchpad)>
     4E3:	0086      	cmp        al, @(0x0, x)
     4E4:	0DF0      	bne        +0xD <___libgatt_lib_db_4573+0x1C:0x4F1[p]>
     4E5:	3400      	**prefx    0x34
     4E6:	A919      	ld         x, @0x33A9 <DATA_RODATA_END+0x6>
     4E7:	9500      	**prefx    0x95
     4E8:	6B38      	add        x, #-0x6A95
     4E9:	0023      	st         ah, @(0x0, y)
     4EA:	FA15      	ld         al, @0xFFFA <(scratchpad)>
     4EB:	0127      	st         al, @(+0x1, y)
     4EC:	F915      	ld         al, @0xFFF9 <(scratchpad)>
     4ED:	F811      	ld         ah, @0xFFF8 <(scratchpad)>
     4EE:	FF2B      	st         x, @(-0x1, y)
     4EF:	FF9F      	bsr        @(-0x1, y)
     4F0:	02E0      	bra        +0x2 <___libgatt_lib_db_4573+0x1D:0x4F2[p]>
     4F1:	0114      	ld         al, #+0x1
     4F2:	030F      	leave      #+0x3

0x000004F3 <___libgatt_lib_db_4572>:
     4F3:	010B      	enter      #+0x1
     4F4:	0117      	ld         al, @(+0x1, y)
     4F5:	0213      	ld         ah, @(+0x2, y)
     4F6:	0684      	cmp        al, #+0x6
     4F7:	07F0      	bne        +0x7 <___libgatt_lib_db_4572+0xB:0x4FE[p]>
     4F8:	E015      	ld         al, @0xFFE0 <register ah>
     4F9:	9400      	**prefx    0x94
     4FA:	7410      	ld         ah, #-0x6B8C
     4FB:	FE00      	**prefx    0xFE
     4FC:	779C      	bsr        -0x189 <___libgatt_lib_db_4604:0x373[p]>
     4FD:	040F      	leave      #+0x4
     4FE:	010F      	leave      #+0x1

0x000004FF <___libgatt_lib_db_4576>:
     4FF:	0017      	ld         al, @(0x0, y)
     500:	0E84      	cmp        al, #+0xE
     501:	04F4      	beq        +0x4 <___libgatt_lib_db_4576+0x6:0x505[p]>
     502:	1884      	cmp        al, #+0x18
     503:	09F0      	bne        +0x9 <BSS_SIZE+0x5:0x50C[p]>
     504:	05E0      	bra        +0x5 <BSS_SIZE+0x2:0x509[p]>
     505:	0600      	**prefx    0x6
     506:	0C14      	ld         al, #+0x60C
     507:	0127      	st         al, @(+0x1, y)
     508:	00E2      	bra        0x0, x
     509:	0500      	**prefx    0x5
     50A:	0D14      	ld         al, #+0x50D
     50B:	0127      	st         al, @(+0x1, y)
     50C:	00E2      	bra        0x0, x

0x0000050D <.LFB4>:
     50D:	0F0B      	enter      #+0xF
     50E:	0C27      	st         al, @(+0xC, y)
     50F:	0D23      	st         ah, @(+0xD, y)
     510:	0014      	ld         al, #+0x0
     511:	0427      	st         al, @(+0x4, y)
     512:	FF18      	ld         x, #-0x1
     513:	052B      	st         x, @(+0x5, y)
     514:	E099      	tst        @0xFFE0 <register ah>
     515:	07F4      	beq        +0x7 <.LFB4+0xF:0x51C[p]>
     516:	0C1B      	ld         x, @(+0xC, y)
     517:	0100      	**prefx    0x1
     518:	9616      	ld         al, @(+0x96, x)
     519:	0134      	add        al, #+0x1
     51A:	0100      	**prefx    0x1
     51B:	9726      	st         al, @(+0x97, x)
     51C:	0C17      	ld         al, @(+0xC, y)
     51D:	0100      	**prefx    0x1
     51E:	9734      	add        al, #+0x97
     51F:	0100      	**prefx    0x1
     520:	8900      	**prefx    0x89
     521:	869C      	bsr        +0x8886 <BufReadUint8:0x8DA7[p]>
     522:	E199      	tst        @0xFFE1 <register al>
     523:	05F4      	beq        +0x5 <.LFB4+0x1B:0x528[p]>
     524:	0184      	cmp        al, #+0x1
     525:	0100      	**prefx    0x1
     526:	E2F0      	bne        +0xE2 <.LFB4+0xFB:0x608[p]>
     527:	05E0      	bra        +0x5 <.LFB4+0x1F:0x52C[p]>
     528:	0014      	ld         al, #+0x0
     529:	0727      	st         al, @(+0x7, y)
     52A:	0100      	**prefx    0x1
     52B:	C2E0      	bra        +0xC2 <.LFB4+0xE0:0x5ED[p]>
     52C:	0D9B      	tst        @(+0xD, y)
     52D:	09F4      	beq        +0x9 <.LFB4+0x29:0x536[p]>
     52E:	0D1B      	ld         x, @(+0xD, y)
     52F:	041A      	ld         x, @(+0x4, x)
     530:	072B      	st         x, @(+0x7, y)
     531:	05F4      	beq        +0x5 <.LFB4+0x29:0x536[p]>
     532:	0A00      	**prefx    0xA
     533:	4388      	cmp        x, #+0xA43
     534:	0100      	**prefx    0x1
     535:	C8F0      	bne        +0xC8 <.LFB4+0xF0:0x5FD[p]>
     536:	0C17      	ld         al, @(+0xC, y)
     537:	0434      	add        al, #+0x4
     538:	0627      	st         al, @(+0x6, y)
     539:	0927      	st         al, @(+0x9, y)
     53A:	0018      	ld         x, #+0x0
     53B:	072B      	st         x, @(+0x7, y)
     53C:	082B      	st         x, @(+0x8, y)
     53D:	62E0      	bra        +0x62 <.LFB4+0x92:0x59F[p]>
     53E:	091B      	ld         x, @(+0x9, y)
     53F:	0016      	ld         al, @(0x0, x)
     540:	0587      	cmp        al, @(+0x5, y)
     541:	03FC      	bcs        +0x3 <.LFB4+0x37:0x544[p]>
     542:	049B      	tst        @(+0x4, y)
     543:	07F0      	bne        +0x7 <.LFB4+0x3D:0x54A[p]>
     544:	E411      	ld         ah, @0xFFE4 <register uy>
     545:	0530      	add        ah, #+0x5
     546:	0100      	**prefx    0x1
     547:	A800      	**prefx    0xA8
     548:	EB9C      	bsr        +0xA7EB <___libgatt_lib_db_273:0xAD33[p]>
     549:	0427      	st         al, @(+0x4, y)
     54A:	0917      	ld         al, @(+0x9, y)
     54B:	0334      	add        al, #+0x3
     54C:	0B27      	st         al, @(+0xB, y)
     54D:	41E0      	bra        +0x41 <.LFB4+0x81:0x58E[p]>
     54E:	E181      	cmp        ah, @0xFFE1 <register al>
     54F:	38F0      	bne        +0x38 <.LFB4+0x7A:0x587[p]>
     550:	0D9B      	tst        @(+0xD, y)
     551:	28F0      	bne        +0x28 <.LFB4+0x6C:0x579[p]>
     552:	F819      	ld         x, @0xFFF8 <(scratchpad)>
     553:	0012      	ld         ah, @(0x0, x)
     554:	0009      	**unsigned
     555:	08A4      	lsr        #0x8
     556:	04C0      	and        ah, #0x4
     557:	30F4      	beq        +0x30 <.LFB4+0x7A:0x587[p]>
     558:	091B      	ld         x, @(+0x9, y)
     559:	0216      	ld         al, @(+0x2, x)
     55A:	0DF4      	beq        +0xD <.LFB4+0x5A:0x567[p]>
     55B:	0027      	st         al, @(0x0, y)
     55C:	091B      	ld         x, @(+0x9, y)
     55D:	011A      	ld         x, @(+0x1, x)
     55E:	012B      	st         x, @(+0x1, y)
     55F:	9700      	**prefx    0x97
     560:	C014      	ld         al, #-0x6940
     561:	0B13      	ld         ah, @(+0xB, y)
     562:	0100      	**prefx    0x1
     563:	A500      	**prefx    0xA5
     564:	279C      	bsr        +0xA527 <___libgatt_lib_db_288:0xAA8B[p]>
     565:	9700      	**prefx    0x97
     566:	C014      	ld         al, #-0x6940
     567:	0218      	ld         x, #+0x2
     568:	002B      	st         x, @(0x0, y)
     569:	091B      	ld         x, @(+0x9, y)
     56A:	011A      	ld         x, @(+0x1, x)
     56B:	012B      	st         x, @(+0x1, y)
     56C:	091B      	ld         x, @(+0x9, y)
     56D:	021A      	ld         x, @(+0x2, x)
     56E:	022B      	st         x, @(+0x2, y)
     56F:	0327      	st         al, @(+0x3, y)
     570:	0C1B      	ld         x, @(+0xC, y)
     571:	0016      	ld         al, @(0x0, x)
     572:	0513      	ld         ah, @(+0x5, y)
     573:	0100      	**prefx    0x1
     574:	9D00      	**prefx    0x9D
     575:	539C      	bsr        +0x9D53 <___libgatt_lib_db_226:0xA2C8[p]>
     576:	0114      	ld         al, #+0x1
     577:	0827      	st         al, @(+0x8, y)
     578:	0FE0      	bra        +0xF <.LFB4+0x7A:0x587[p]>
     579:	0D1B      	ld         x, @(+0xD, y)
     57A:	041A      	ld         x, @(+0x4, x)
     57B:	072B      	st         x, @(+0x7, y)
     57C:	0A00      	**prefx    0xA
     57D:	4388      	cmp        x, #+0xA43
     57E:	09F0      	bne        +0x9 <.LFB4+0x7A:0x587[p]>
     57F:	E415      	ld         al, @0xFFE4 <register uy>
     580:	0434      	add        al, #+0x4
     581:	0913      	ld         ah, @(+0x9, y)
     582:	0100      	**prefx    0x1
     583:	A600      	**prefx    0xA6
     584:	629C      	bsr        +0xA662 <___libgatt_lib_db_271:0xABE6[p]>
     585:	0727      	st         al, @(+0x7, y)
     586:	13F0      	bne        +0x13 <.LFB4+0x8C:0x599[p]>
     587:	0417      	ld         al, @(+0x4, y)
     588:	E411      	ld         ah, @0xFFE4 <register uy>
     589:	0530      	add        ah, #+0x5
     58A:	0100      	**prefx    0x1
     58B:	A700      	**prefx    0xA7
     58C:	E49C      	bsr        +0xA6E4 <___libgatt_lib_db_279:0xAC70[p]>
     58D:	0427      	st         al, @(+0x4, y)
     58E:	0417      	ld         al, @(+0x4, y)
     58F:	F825      	st         al, @0xFFF8 <(scratchpad)>
     590:	09F4      	beq        +0x9 <.LFB4+0x8C:0x599[p]>
     591:	0513      	ld         ah, @(+0x5, y)
     592:	091B      	ld         x, @(+0x9, y)
     593:	0016      	ld         al, @(0x0, x)
     594:	E181      	cmp        ah, @0xFFE1 <register al>
     595:	022C      	bcz        +0x2 <.LFB4+0x8A:0x597[p]>
     596:	03E0      	bra        +0x3 <.LFB4+0x8C:0x599[p]>
     597:	079B      	tst        @(+0x7, y)
     598:	B6F4      	beq        -0x4A <.LFB4+0x41:0x54E[p]>
     599:	0C17      	ld         al, @(+0xC, y)
     59A:	0913      	ld         ah, @(+0x9, y)
     59B:	0100      	**prefx    0x1
     59C:	A600      	**prefx    0xA6
     59D:	929C      	bsr        +0xA592 <___libgatt_lib_db_291:0xAB2F[p]>
     59E:	0927      	st         al, @(+0x9, y)
     59F:	099B      	tst        @(+0x9, y)
     5A0:	03F4      	beq        +0x3 <.LFB4+0x96:0x5A3[p]>
     5A1:	079B      	tst        @(+0x7, y)
     5A2:	9CF4      	beq        -0x64 <.LFB4+0x31:0x53E[p]>
     5A3:	089B      	tst        @(+0x8, y)
     5A4:	10F4      	beq        +0x10 <.LFB4+0xA7:0x5B4[p]>
     5A5:	4000      	**prefx    0x40
     5A6:	0014      	ld         al, #+0x4000
     5A7:	0027      	st         al, @(0x0, y)
     5A8:	0018      	ld         x, #+0x0
     5A9:	012B      	st         x, @(+0x1, y)
     5AA:	022B      	st         x, @(+0x2, y)
     5AB:	032B      	st         x, @(+0x3, y)
     5AC:	0C1B      	ld         x, @(+0xC, y)
     5AD:	0016      	ld         al, @(0x0, x)
     5AE:	0010      	ld         ah, #+0x0
     5AF:	0100      	**prefx    0x1
     5B0:	9D00      	**prefx    0x9D
     5B1:	179C      	bsr        +0x9D17 <___libgatt_lib_db_226:0xA2C8[p]>
     5B2:	0014      	ld         al, #+0x0
     5B3:	54E0      	bra        +0x54 <.LFB4+0xFA:0x607[p]>
     5B4:	0D9B      	tst        @(+0xD, y)
     5B5:	38F0      	bne        +0x38 <.LFB4+0xE0:0x5ED[p]>
     5B6:	FF14      	ld         al, #-0x1
     5B7:	0527      	st         al, @(+0x5, y)
     5B8:	0018      	ld         x, #+0x0
     5B9:	042B      	st         x, @(+0x4, y)
     5BA:	2FE0      	bra        +0x2F <.LFB4+0xDC:0x5E9[p]>
     5BB:	061B      	ld         x, @(+0x6, y)
     5BC:	0016      	ld         al, @(0x0, x)
     5BD:	0587      	cmp        al, @(+0x5, y)
     5BE:	03FC      	bcs        +0x3 <.LFB4+0xB4:0x5C1[p]>
     5BF:	049B      	tst        @(+0x4, y)
     5C0:	18F0      	bne        +0x18 <.LFB4+0xCB:0x5D8[p]>
     5C1:	E411      	ld         ah, @0xFFE4 <register uy>
     5C2:	0530      	add        ah, #+0x5
     5C3:	0100      	**prefx    0x1
     5C4:	A700      	**prefx    0xA7
     5C5:	6E9C      	bsr        +0xA76E <___libgatt_lib_db_273:0xAD33[p]>
     5C6:	11E0      	bra        +0x11 <.LFB4+0xCA:0x5D7[p]>
     5C7:	E181      	cmp        ah, @0xFFE1 <register al>
     5C8:	09F0      	bne        +0x9 <.LFB4+0xC4:0x5D1[p]>
     5C9:	E415      	ld         al, @0xFFE4 <register uy>
     5CA:	0434      	add        al, #+0x4
     5CB:	0613      	ld         ah, @(+0x6, y)
     5CC:	0100      	**prefx    0x1
     5CD:	A600      	**prefx    0xA6
     5CE:	189C      	bsr        +0xA618 <___libgatt_lib_db_271:0xABE6[p]>
     5CF:	0A27      	st         al, @(+0xA, y)
     5D0:	11F0      	bne        +0x11 <.LFB4+0xD4:0x5E1[p]>
     5D1:	0417      	ld         al, @(+0x4, y)
     5D2:	E411      	ld         ah, @0xFFE4 <register uy>
     5D3:	0530      	add        ah, #+0x5
     5D4:	0100      	**prefx    0x1
     5D5:	A700      	**prefx    0xA7
     5D6:	9A9C      	bsr        +0xA69A <___libgatt_lib_db_279:0xAC70[p]>
     5D7:	0427      	st         al, @(+0x4, y)
     5D8:	049B      	tst        @(+0x4, y)
     5D9:	06F4      	beq        +0x6 <.LFB4+0xD2:0x5DF[p]>
     5DA:	0513      	ld         ah, @(+0x5, y)
     5DB:	061B      	ld         x, @(+0x6, y)
     5DC:	0016      	ld         al, @(0x0, x)
     5DD:	E181      	cmp        ah, @0xFFE1 <register al>
     5DE:	E92C      	bcz        -0x17 <.LFB4+0xBA:0x5C7[p]>
     5DF:	0014      	ld         al, #+0x0
     5E0:	0A27      	st         al, @(+0xA, y)
     5E1:	0C17      	ld         al, @(+0xC, y)
     5E2:	0613      	ld         ah, @(+0x6, y)
     5E3:	0100      	**prefx    0x1
     5E4:	A500      	**prefx    0xA5
     5E5:	4A9C      	bsr        +0xA54A <___libgatt_lib_db_291:0xAB2F[p]>
     5E6:	0627      	st         al, @(+0x6, y)
     5E7:	0A1B      	ld         x, @(+0xA, y)
     5E8:	072B      	st         x, @(+0x7, y)
     5E9:	069B      	tst        @(+0x6, y)
     5EA:	03F4      	beq        +0x3 <.LFB4+0xE0:0x5ED[p]>
     5EB:	079B      	tst        @(+0x7, y)
     5EC:	CFF4      	beq        -0x31 <.LFB4+0xAE:0x5BB[p]>
     5ED:	0C17      	ld         al, @(+0xC, y)
     5EE:	0100      	**prefx    0x1
     5EF:	A500      	**prefx    0xA5
     5F0:	399C      	bsr        +0xA539 <___libgatt_lib_db_290:0xAB29[p]>
     5F1:	079B      	tst        @(+0x7, y)
     5F2:	0BF0      	bne        +0xB <.LFB4+0xF0:0x5FD[p]>
     5F3:	0C17      	ld         al, @(+0xC, y)
     5F4:	1910      	ld         ah, #+0x19
     5F5:	0100      	**prefx    0x1
     5F6:	9600      	**prefx    0x96
     5F7:	159C      	bsr        +0x9615 <___libgatt_lib_db_164:0x9C0C[p]>
     5F8:	0C17      	ld         al, @(+0xC, y)
     5F9:	0100      	**prefx    0x1
     5FA:	9600      	**prefx    0x96
     5FB:	CC9C      	bsr        +0x95CC <___libgatt_lib_db_165:0x9BC7[p]>
     5FC:	0AE0      	bra        +0xA <.LFB4+0xF9:0x606[p]>
     5FD:	0517      	ld         al, @(+0x5, y)
     5FE:	0027      	st         al, @(0x0, y)
     5FF:	071B      	ld         x, @(+0x7, y)
     600:	012B      	st         x, @(+0x1, y)
     601:	0C17      	ld         al, @(+0xC, y)
     602:	1810      	ld         ah, #+0x18
     603:	0100      	**prefx    0x1
     604:	9300      	**prefx    0x93
     605:	869C      	bsr        +0x9286 <___libgatt_lib_db_143:0x988B[p]>
     606:	0114      	ld         al, #+0x1
     607:	0F0F      	leave      #+0xF
     608:	0A00      	**prefx    0xA
     609:	0414      	ld         al, #+0xA04
     60A:	0727      	st         al, @(+0x7, y)
     60B:	F2E0      	bra        -0xE <.LFB4+0xF0:0x5FD[p]>

0x0000060C <.LFB3>:
     60C:	0E0B      	enter      #+0xE
     60D:	0B27      	st         al, @(+0xB, y)
     60E:	0C23      	st         ah, @(+0xC, y)
     60F:	FF14      	ld         al, #-0x1
     610:	0427      	st         al, @(+0x4, y)
     611:	0B1B      	ld         x, @(+0xB, y)
     612:	0100      	**prefx    0x1
     613:	9616      	ld         al, @(+0x96, x)
     614:	0100      	**prefx    0x1
     615:	9756      	sub        al, @(+0x97, x)
     616:	0100      	**prefx    0x1
     617:	9836      	add        al, @(+0x98, x)
     618:	0727      	st         al, @(+0x7, y)
     619:	01C4      	and        al, #0x1
     61A:	06F4      	beq        +0x6 <.LFB3+0x14:0x620[p]>
     61B:	0018      	ld         x, #+0x0
     61C:	002B      	st         x, @(0x0, y)
     61D:	0A00      	**prefx    0xA
     61E:	0414      	ld         al, #+0xA04
     61F:	4EE0      	bra        +0x4E <.LFB3+0x61:0x66D[p]>
     620:	0B17      	ld         al, @(+0xB, y)
     621:	0F10      	ld         ah, #+0xF
     622:	0100      	**prefx    0x1
     623:	9600      	**prefx    0x96
     624:	E89C      	bsr        +0x95E8 <___libgatt_lib_db_164:0x9C0C[p]>
     625:	0627      	st         al, @(+0x6, y)
     626:	0C9B      	tst        @(+0xC, y)
     627:	0100      	**prefx    0x1
     628:	8CF4      	beq        +0x8C <___libgatt_lib_db_4189+0x3B:0x6B4[p]>
     629:	0C1B      	ld         x, @(+0xC, y)
     62A:	0416      	ld         al, @(+0x4, x)
     62B:	0CF0      	bne        +0xC <.LFB3+0x2B:0x637[p]>
     62C:	0612      	ld         ah, @(+0x6, x)
     62D:	0516      	ld         al, @(+0x5, x)
     62E:	0027      	st         al, @(0x0, y)
     62F:	0B17      	ld         al, @(+0xB, y)
     630:	0100      	**prefx    0x1
     631:	9600      	**prefx    0x96
     632:	BC9C      	bsr        +0x95BC <___libgatt_lib_db_166:0x9BEE[p]>
     633:	0627      	st         al, @(+0x6, y)
     634:	0018      	ld         x, #+0x0
     635:	0C2B      	st         x, @(+0xC, y)
     636:	7EE0      	bra        +0x7E <___libgatt_lib_db_4189+0x3B:0x6B4[p]>
     637:	0A00      	**prefx    0xA
     638:	4384      	cmp        al, #+0xA43
     639:	0BF0      	bne        +0xB <.LFB3+0x38:0x644[p]>
     63A:	0B1B      	ld         x, @(+0xB, y)
     63B:	0100      	**prefx    0x1
     63C:	9716      	ld         al, @(+0x97, x)
     63D:	FE34      	add        al, #-0x2
     63E:	0100      	**prefx    0x1
     63F:	9726      	st         al, @(+0x97, x)
     640:	0717      	ld         al, @(+0x7, y)
     641:	0234      	add        al, #+0x2
     642:	0727      	st         al, @(+0x7, y)
     643:	71E0      	bra        +0x71 <___libgatt_lib_db_4189+0x3B:0x6B4[p]>
     644:	0C1B      	ld         x, @(+0xC, y)
     645:	031A      	ld         x, @(+0x3, x)
     646:	26E0      	bra        +0x26 <.LFB3+0x60:0x66C[p]>
     647:	0A17      	ld         al, @(+0xA, y)
     648:	0100      	**prefx    0x1
     649:	8700      	**prefx    0x87
     64A:	699C      	bsr        +0x8769 <BufReadUint16:0x8DB3[p]>
     64B:	0827      	st         al, @(+0x8, y)
     64C:	0487      	cmp        al, @(+0x4, y)
     64D:	03FC      	bcs        +0x3 <.LFB3+0x44:0x650[p]>
     64E:	059B      	tst        @(+0x5, y)
     64F:	4DF0      	bne        +0x4D <___libgatt_lib_db_4189+0x23:0x69C[p]>
     650:	0817      	ld         al, @(+0x8, y)
     651:	E411      	ld         ah, @0xFFE4 <register uy>
     652:	0430      	add        ah, #+0x4
     653:	0100      	**prefx    0x1
     654:	A700      	**prefx    0xA7
     655:	DE9C      	bsr        +0xA6DE <___libgatt_lib_db_273:0xAD33[p]>
     656:	45E0      	bra        +0x45 <___libgatt_lib_db_4189+0x22:0x69B[p]>
     657:	0887      	cmp        al, @(+0x8, y)
     658:	3DF0      	bne        +0x3D <___libgatt_lib_db_4189+0x1C:0x695[p]>
     659:	0517      	ld         al, @(+0x5, y)
     65A:	0100      	**prefx    0x1
     65B:	A600      	**prefx    0xA6
     65C:	7F9C      	bsr        +0xA67F <___libgatt_lib_db_280:0xACDB[p]>
     65D:	02C4      	and        al, #0x2
     65E:	04F0      	bne        +0x4 <.LFB3+0x56:0x662[p]>
     65F:	0A00      	**prefx    0xA
     660:	0214      	ld         al, #+0xA02
     661:	0AE0      	bra        +0xA <.LFB3+0x5F:0x66B[p]>
     662:	0214      	ld         al, #+0x2
     663:	0027      	st         al, @(0x0, y)
     664:	0B17      	ld         al, @(+0xB, y)
     665:	0513      	ld         ah, @(+0x5, y)
     666:	0100      	**prefx    0x1
     667:	9C00      	**prefx    0x9C
     668:	389C      	bsr        +0x9C38 <___libgatt_lib_db_222:0xA2A0[p]>
     669:	E199      	tst        @0xFFE1 <register al>
     66A:	05F4      	beq        +0x5 <.LFB3+0x63:0x66F[p]>
     66B:	081B      	ld         x, @(+0x8, y)
     66C:	002B      	st         x, @(0x0, y)
     66D:	0127      	st         al, @(+0x1, y)
     66E:	40E0      	bra        +0x40 <___libgatt_lib_db_4189+0x35:0x6AE[p]>
     66F:	0C9B      	tst        @(+0xC, y)
     670:	16F0      	bne        +0x16 <___libgatt_lib_db_4189+0xD:0x686[p]>
     671:	051B      	ld         x, @(+0x5, y)
     672:	0012      	ld         ah, @(0x0, x)
     673:	0009      	**unsigned
     674:	08A4      	lsr        #0x8
     675:	04C0      	and        ah, #0x4
     676:	10F4      	beq        +0x10 <___libgatt_lib_db_4189+0xD:0x686[p]>
     677:	8000      	**prefx    0x80
     678:	0114      	ld         al, #-0x7FFF
     679:	0027      	st         al, @(0x0, y)
     67A:	0018      	ld         x, #+0x0
     67B:	012B      	st         x, @(+0x1, y)
     67C:	022B      	st         x, @(+0x2, y)
     67D:	032B      	st         x, @(+0x3, y)
     67E:	0B1B      	ld         x, @(+0xB, y)
     67F:	0016      	ld         al, @(0x0, x)
     680:	0813      	ld         ah, @(+0x8, y)
     681:	0100      	**prefx    0x1
     682:	9C00      	**prefx    0x9C
     683:	459C      	bsr        +0x9C45 <___libgatt_lib_db_226:0xA2C8[p]>
     684:	0014      	ld         al, #+0x0
     685:	42E0      	bra        +0x42 <___libgatt_lib_db_4189+0x4E:0x6C7[p]>
     686:	0014      	ld         al, #+0x0
     687:	0027      	st         al, @(0x0, y)
     688:	061B      	ld         x, @(+0x6, y)
     689:	012B      	st         x, @(+0x1, y)
     68A:	0917      	ld         al, @(+0x9, y)
     68B:	0513      	ld         ah, @(+0x5, y)
     68C:	0100      	**prefx    0x1
     68D:	A600      	**prefx    0xA6
     68E:	B09C      	bsr        +0xA5B0 <___libgatt_lib_db_282:0xAC3E[p]>
     68F:	061B      	ld         x, @(+0x6, y)
     690:	E159      	sub        x, @0xFFE1 <register al>
     691:	062B      	st         x, @(+0x6, y)
     692:	0014      	ld         al, #+0x0
     693:	0C27      	st         al, @(+0xC, y)
     694:	0DE0      	bra        +0xD <___libgatt_lib_db_4189+0x28:0x6A1[p]>
     695:	0517      	ld         al, @(+0x5, y)
     696:	E411      	ld         ah, @0xFFE4 <register uy>
     697:	0430      	add        ah, #+0x4
     698:	0100      	**prefx    0x1
     699:	A600      	**prefx    0xA6
     69A:	D69C      	bsr        +0xA5D6 <___libgatt_lib_db_279:0xAC70[p]>
     69B:	0527      	st         al, @(+0x5, y)
     69C:	059B      	tst        @(+0x5, y)
     69D:	0CF4      	beq        +0xC <___libgatt_lib_db_4189+0x30:0x6A9[p]>
     69E:	0417      	ld         al, @(+0x4, y)
     69F:	0887      	cmp        al, @(+0x8, y)
     6A0:	B72C      	bcz        -0x49 <.LFB3+0x4B:0x657[p]>
     6A1:	0417      	ld         al, @(+0x4, y)
     6A2:	0887      	cmp        al, @(+0x8, y)
     6A3:	022C      	bcz        +0x2 <___libgatt_lib_db_4189+0x2C:0x6A5[p]>
     6A4:	05E0      	bra        +0x5 <___libgatt_lib_db_4189+0x30:0x6A9[p]>
     6A5:	071B      	ld         x, @(+0x7, y)
     6A6:	FE38      	add        x, #-0x2
     6A7:	072B      	st         x, @(+0x7, y)
     6A8:	16E0      	bra        +0x16 <___libgatt_lib_db_4189+0x45:0x6BE[p]>
     6A9:	0817      	ld         al, @(+0x8, y)
     6AA:	0027      	st         al, @(0x0, y)
     6AB:	0A00      	**prefx    0xA
     6AC:	0118      	ld         x, #+0xA01
     6AD:	012B      	st         x, @(+0x1, y)
     6AE:	0B17      	ld         al, @(+0xB, y)
     6AF:	0E10      	ld         ah, #+0xE
     6B0:	0100      	**prefx    0x1
     6B1:	9200      	**prefx    0x92
     6B2:	D99C      	bsr        +0x91D9 <___libgatt_lib_db_143:0x988B[p]>
     6B3:	13E0      	bra        +0x13 <___libgatt_lib_db_4189+0x4D:0x6C6[p]>
     6B4:	0B17      	ld         al, @(+0xB, y)
     6B5:	0100      	**prefx    0x1
     6B6:	9734      	add        al, #+0x97
     6B7:	0A27      	st         al, @(+0xA, y)
     6B8:	0B1B      	ld         x, @(+0xB, y)
     6B9:	0100      	**prefx    0x1
     6BA:	9A38      	add        x, #+0x9A
     6BB:	092B      	st         x, @(+0x9, y)
     6BC:	0014      	ld         al, #+0x0
     6BD:	0527      	st         al, @(+0x5, y)
     6BE:	079B      	tst        @(+0x7, y)
     6BF:	03F4      	beq        +0x3 <___libgatt_lib_db_4189+0x49:0x6C2[p]>
     6C0:	069B      	tst        @(+0x6, y)
     6C1:	86F0      	bne        -0x7A <.LFB3+0x3B:0x647[p]>
     6C2:	0B17      	ld         al, @(+0xB, y)
     6C3:	0100      	**prefx    0x1
     6C4:	9500      	**prefx    0x95
     6C5:	029C      	bsr        +0x9502 <___libgatt_lib_db_165:0x9BC7[p]>
     6C6:	0114      	ld         al, #+0x1
     6C7:	0E0F      	leave      #+0xE

0x000006C8 <.LFB16>:
     6C8:	040B      	enter      #+0x4
     6C9:	0227      	st         al, @(+0x2, y)
     6CA:	E119      	ld         x, @0xFFE1 <register al>
     6CB:	9700      	**prefx    0x97
     6CC:	5516      	ld         al, @(-0x68AB, x)
     6CD:	0684      	cmp        al, #+0x6
     6CE:	25F0      	bne        +0x25 <.LFB16+0x2B:0x6F3[p]>
     6CF:	F600      	**prefx    0xF6
     6D0:	6C19      	ld         x, @0xF66C <___libgatt_lib_db_1944>
     6D1:	0217      	ld         al, @(+0x2, y)
     6D2:	02A0      	asl        #0x2
     6D3:	F825      	st         al, @0xFFF8 <(scratchpad)>
     6D4:	0214      	ld         al, #+0x2
     6D5:	F8A1      	asl        @0xFFF8 <(scratchpad)>
     6D6:	E1C9      	and        x, @0xFFE1 <register al>
     6D7:	1CF4      	beq        +0x1C <.LFB16+0x2B:0x6F3[p]>
     6D8:	3400      	**prefx    0x34
     6D9:	AD15      	ld         al, @0x33AD <patch_pending_mode+0x1>
     6DA:	0127      	st         al, @(+0x1, y)
     6DB:	3400      	**prefx    0x34
     6DC:	AD11      	ld         ah, @0x33AD <patch_pending_mode+0x1>
     6DD:	B900      	**prefx    0xB9
     6DE:	AF30      	add        ah, #-0x4751
     6DF:	0217      	ld         al, @(+0x2, y)
     6E0:	FF23      	st         ah, @(-0x1, y)
     6E1:	FF9F      	bsr        @(-0x1, y)
     6E2:	E111      	ld         ah, @0xFFE1 <register al>
     6E3:	0117      	ld         al, @(+0x1, y)
     6E4:	B700      	**prefx    0xB7
     6E5:	6234      	add        al, #-0x489E
     6E6:	0127      	st         al, @(+0x1, y)
     6E7:	2818      	ld         x, #+0x28
     6E8:	002B      	st         x, @(0x0, y)
     6E9:	0014      	ld         al, #+0x0
     6EA:	019F      	bsr        @(+0x1, y)
     6EB:	3400      	**prefx    0x34
     6EC:	AD11      	ld         ah, @0x33AD <patch_pending_mode+0x1>
     6ED:	BD00      	**prefx    0xBD
     6EE:	B630      	add        ah, #-0x434A
     6EF:	0217      	ld         al, @(+0x2, y)
     6F0:	FF23      	st         ah, @(-0x1, y)
     6F1:	FF9F      	bsr        @(-0x1, y)
     6F2:	09E0      	bra        +0x9 <.LFB16+0x33:0x6FB[p]>
     6F3:	3400      	**prefx    0x34
     6F4:	AD19      	ld         x, @0x33AD <patch_pending_mode+0x1>
     6F5:	BE00      	**prefx    0xBE
     6F6:	FC38      	add        x, #-0x4204
     6F7:	0217      	ld         al, @(+0x2, y)
     6F8:	0010      	ld         ah, #+0x0
     6F9:	FF2B      	st         x, @(-0x1, y)
     6FA:	FF9F      	bsr        @(-0x1, y)
     6FB:	040F      	leave      #+0x4

0x000006FC <___libgatt_lib_db_4607>:
     6FC:	010B      	enter      #+0x1
     6FD:	E119      	ld         x, @0xFFE1 <register al>
     6FE:	0217      	ld         al, @(+0x2, y)
     6FF:	0026      	st         al, @(0x0, x)
     700:	0117      	ld         al, @(+0x1, y)
     701:	0126      	st         al, @(+0x1, x)
     702:	0222      	st         ah, @(+0x2, x)
     703:	010F      	leave      #+0x1

0x00000704 <___libgatt_lib_db_4614>:
     704:	020B      	enter      #+0x2
     705:	0617      	ld         al, @(+0x6, y)
     706:	CE00      	**prefx    0xCE
     707:	2384      	cmp        al, #-0x31DD
     708:	16F0      	bne        +0x16 <___libgatt_lib_db_4614+0x1A:0x71E[p]>
     709:	3400      	**prefx    0x34
     70A:	B799      	tst        @0x33B7 <enable_lowduty_directed_adv>
     70B:	13F4      	beq        +0x13 <___libgatt_lib_db_4614+0x1A:0x71E[p]>
     70C:	0417      	ld         al, @(+0x4, y)
     70D:	3400      	**prefx    0x34
     70E:	AD19      	ld         x, @0x33AD <patch_pending_mode+0x1>
     70F:	F829      	st         x, @0xFFF8 <(scratchpad)>
     710:	5790      	smult      #+0x57
     711:	9700      	**prefx    0x97
     712:	5534      	add        al, #-0x68AB
     713:	0027      	st         al, @(0x0, y)
     714:	E119      	ld         x, @0xFFE1 <register al>
     715:	6216      	ld         al, @(+0x62, x)
     716:	F819      	ld         x, @0xFFF8 <(scratchpad)>
     717:	E000      	**prefx    0xE0
     718:	1938      	add        x, #-0x1FE7
     719:	FF2B      	st         x, @(-0x1, y)
     71A:	FF9F      	bsr        @(-0x1, y)
     71B:	0014      	ld         al, #+0x0
     71C:	001B      	ld         x, @(0x0, y)
     71D:	6226      	st         al, @(+0x62, x)
     71E:	020F      	leave      #+0x2

0x0000071F <___libgatt_lib_db_4613>:
     71F:	1E0B      	enter      #+0x1E
     720:	3817      	ld         al, @(+0x38, y)
     721:	1B27      	st         al, @(+0x1B, y)
     722:	5790      	smult      #+0x57
     723:	9700      	**prefx    0x97
     724:	6B34      	add        al, #-0x6895
     725:	1827      	st         al, @(+0x18, y)
     726:	0018      	ld         x, #+0x0
     727:	022B      	st         x, @(+0x2, y)
     728:	0014      	ld         al, #+0x0
     729:	181B      	ld         x, @(+0x18, y)
     72A:	4B26      	st         al, @(+0x4B, x)
     72B:	181A      	ld         x, @(+0x18, x)
     72C:	1A2B      	st         x, @(+0x1A, y)
     72D:	181B      	ld         x, @(+0x18, y)
     72E:	111A      	ld         x, @(+0x11, x)
     72F:	192B      	st         x, @(+0x19, y)
     730:	181B      	ld         x, @(+0x18, y)
     731:	4F16      	ld         al, @(+0x4F, x)
     732:	1226      	st         al, @(+0x12, x)
     733:	5016      	ld         al, @(+0x50, x)
     734:	1326      	st         al, @(+0x13, x)
     735:	3400      	**prefx    0x34
     736:	AD19      	ld         x, @0x33AD <patch_pending_mode+0x1>
     737:	E315      	ld         al, @0xFFE3 <register uxl>
     738:	CB00      	**prefx    0xCB
     739:	F034      	add        al, #-0x3510
     73A:	F825      	st         al, @0xFFF8 <(scratchpad)>
     73B:	181B      	ld         x, @(+0x18, y)
     73C:	4D12      	ld         ah, @(+0x4D, x)
     73D:	4E16      	ld         al, @(+0x4E, x)
     73E:	0027      	st         al, @(0x0, y)
     73F:	1B17      	ld         al, @(+0x1B, y)
     740:	F819      	ld         x, @0xFFF8 <(scratchpad)>
     741:	FF2B      	st         x, @(-0x1, y)
     742:	FF9F      	bsr        @(-0x1, y)
     743:	0014      	ld         al, #+0x0
     744:	181B      	ld         x, @(+0x18, y)
     745:	4D26      	st         al, @(+0x4D, x)
     746:	1816      	ld         al, @(+0x18, x)
     747:	02E0      	bra        +0x2 <___libgatt_lib_db_4613+0x2A:0x749[p]>
     748:	1937      	add        al, @(+0x19, y)
     749:	1A87      	cmp        al, @(+0x1A, y)
     74A:	FEFC      	bcs        -0x2 <___libgatt_lib_db_4613+0x29:0x748[p]>
     74B:	E111      	ld         ah, @0xFFE1 <register al>
     74C:	1A53      	sub        ah, @(+0x1A, y)
     74D:	191B      	ld         x, @(+0x19, y)
     74E:	0078      	nadd       x, #+0x0
     74F:	F829      	st         x, @0xFFF8 <(scratchpad)>
     750:	E019      	ld         x, @0xFFE0 <register ah>
     751:	F831      	add        ah, @0xFFF8 <(scratchpad)>
     752:	1917      	ld         al, @(+0x19, y)
     753:	E035      	add        al, @0xFFE0 <register ah>
     754:	1987      	cmp        al, @(+0x19, y)
     755:	FBF8      	bcc        -0x5 <___libgatt_lib_db_4613+0x31:0x750[p]>
     756:	042B      	st         x, @(+0x4, y)
     757:	0214      	ld         al, #+0x2
     758:	0327      	st         al, @(+0x3, y)
     759:	181B      	ld         x, @(+0x18, y)
     75A:	111A      	ld         x, @(+0x11, x)
     75B:	052B      	st         x, @(+0x5, y)
     75C:	181B      	ld         x, @(+0x18, y)
     75D:	121A      	ld         x, @(+0x12, x)
     75E:	062B      	st         x, @(+0x6, y)
     75F:	181B      	ld         x, @(+0x18, y)
     760:	131A      	ld         x, @(+0x13, x)
     761:	072B      	st         x, @(+0x7, y)
     762:	1B17      	ld         al, @(+0x1B, y)
     763:	0700      	**prefx    0x7
     764:	1A9C      	bsr        +0x71A <___libgatt_lib_db_4637:0xE7E[p]>
     765:	3400      	**prefx    0x34
     766:	AD15      	ld         al, @0x33AD <patch_pending_mode+0x1>
     767:	E500      	**prefx    0xE5
     768:	A734      	add        al, #-0x1B59
     769:	FF27      	st         al, @(-0x1, y)
     76A:	FF9F      	bsr        @(-0x1, y)
     76B:	3400      	**prefx    0x34
     76C:	AD19      	ld         x, @0x33AD <patch_pending_mode+0x1>
     76D:	D200      	**prefx    0xD2
     76E:	1E38      	add        x, #-0x2DE2
     76F:	1B17      	ld         al, @(+0x1B, y)
     770:	E411      	ld         ah, @0xFFE4 <register uy>
     771:	0130      	add        ah, #+0x1
     772:	FF2B      	st         x, @(-0x1, y)
     773:	FF9F      	bsr        @(-0x1, y)
     774:	3400      	**prefx    0x34
     775:	AD15      	ld         al, @0x33AD <patch_pending_mode+0x1>
     776:	B900      	**prefx    0xB9
     777:	6034      	add        al, #-0x46A0
     778:	FF27      	st         al, @(-0x1, y)
     779:	FF9F      	bsr        @(-0x1, y)
     77A:	0827      	st         al, @(+0x8, y)
     77B:	181B      	ld         x, @(+0x18, y)
     77C:	0C16      	ld         al, @(+0xC, x)
     77D:	0384      	cmp        al, #+0x3
     77E:	5E2C      	bcz        +0x5E <UART_RATE_460K8+0x7C:0x7DC[p]>
     77F:	3400      	**prefx    0x34
     780:	AD19      	ld         x, @0x33AD <patch_pending_mode+0x1>
     781:	D300      	**prefx    0xD3
     782:	C938      	add        x, #-0x2D37
     783:	3C14      	ld         al, #+0x3C
     784:	0313      	ld         ah, @(+0x3, y)
     785:	FF2B      	st         x, @(-0x1, y)
     786:	FF9F      	bsr        @(-0x1, y)
     787:	3400      	**prefx    0x34
     788:	AD19      	ld         x, @0x33AD <patch_pending_mode+0x1>
     789:	D300      	**prefx    0xD3
     78A:	C938      	add        x, #-0x2D37
     78B:	3D14      	ld         al, #+0x3D
     78C:	0413      	ld         ah, @(+0x4, y)
     78D:	FF2B      	st         x, @(-0x1, y)
     78E:	FF9F      	bsr        @(-0x1, y)
     78F:	3400      	**prefx    0x34
     790:	AD15      	ld         al, @0x33AD <patch_pending_mode+0x1>
     791:	E119      	ld         x, @0xFFE1 <register al>
     792:	D300      	**prefx    0xD3
     793:	C938      	add        x, #-0x2D37
     794:	F829      	st         x, @0xFFF8 <(scratchpad)>
     795:	181B      	ld         x, @(+0x18, y)
     796:	1112      	ld         ah, @(+0x11, x)
     797:	3014      	ld         al, #+0x30
     798:	F819      	ld         x, @0xFFF8 <(scratchpad)>
     799:	FF2B      	st         x, @(-0x1, y)
     79A:	FF9F      	bsr        @(-0x1, y)
     79B:	3400      	**prefx    0x34
     79C:	AD15      	ld         al, @0x33AD <patch_pending_mode+0x1>
     79D:	E119      	ld         x, @0xFFE1 <register al>
     79E:	D300      	**prefx    0xD3
     79F:	C938      	add        x, #-0x2D37
     7A0:	F829      	st         x, @0xFFF8 <(scratchpad)>
     7A1:	181B      	ld         x, @(+0x18, y)
     7A2:	1212      	ld         ah, @(+0x12, x)
     7A3:	3214      	ld         al, #+0x32
     7A4:	F819      	ld         x, @0xFFF8 <(scratchpad)>
     7A5:	FF2B      	st         x, @(-0x1, y)
     7A6:	FF9F      	bsr        @(-0x1, y)
     7A7:	3400      	**prefx    0x34
     7A8:	AD15      	ld         al, @0x33AD <patch_pending_mode+0x1>
     7A9:	E119      	ld         x, @0xFFE1 <register al>
     7AA:	D300      	**prefx    0xD3
     7AB:	C938      	add        x, #-0x2D37
     7AC:	F829      	st         x, @0xFFF8 <(scratchpad)>
     7AD:	181B      	ld         x, @(+0x18, y)
     7AE:	1312      	ld         ah, @(+0x13, x)
     7AF:	3114      	ld         al, #+0x31
     7B0:	F819      	ld         x, @0xFFF8 <(scratchpad)>
     7B1:	FF2B      	st         x, @(-0x1, y)
     7B2:	FF9F      	bsr        @(-0x1, y)
     7B3:	3400      	**prefx    0x34
     7B4:	AD19      	ld         x, @0x33AD <patch_pending_mode+0x1>
     7B5:	D300      	**prefx    0xD3
     7B6:	C938      	add        x, #-0x2D37
     7B7:	2E14      	ld         al, #+0x2E
     7B8:	0813      	ld         ah, @(+0x8, y)
     7B9:	FF2B      	st         x, @(-0x1, y)
     7BA:	FF9F      	bsr        @(-0x1, y)
     7BB:	3400      	**prefx    0x34
     7BC:	AD15      	ld         al, @0x33AD <patch_pending_mode+0x1>
     7BD:	1C27      	st         al, @(+0x1C, y)
     7BE:	3400      	**prefx    0x34
     7BF:	AD11      	ld         ah, @0x33AD <patch_pending_mode+0x1>
     7C0:	D400      	**prefx    0xD4
     7C1:	C430      	add        ah, #-0x2C3C
     7C2:	1B17      	ld         al, @(+0x1B, y)
     7C3:	FF23      	st         ah, @(-0x1, y)
     7C4:	FF9F      	bsr        @(-0x1, y)
     7C5:	E111      	ld         ah, @0xFFE1 <register al>
     7C6:	1C17      	ld         al, @(+0x1C, y)
     7C7:	D300      	**prefx    0xD3
     7C8:	C934      	add        al, #-0x2D37
     7C9:	1C27      	st         al, @(+0x1C, y)
     7CA:	5E14      	ld         al, #+0x5E
     7CB:	1C9F      	bsr        @(+0x1C, y)
     7CC:	3400      	**prefx    0x34
     7CD:	AD11      	ld         ah, @0x33AD <patch_pending_mode+0x1>
     7CE:	D300      	**prefx    0xD3
     7CF:	DE30      	add        ah, #-0x2D22
     7D0:	5F14      	ld         al, #+0x5F
     7D1:	FF23      	st         ah, @(-0x1, y)
     7D2:	FF9F      	bsr        @(-0x1, y)
     7D3:	E111      	ld         ah, @0xFFE1 <register al>
     7D4:	3400      	**prefx    0x34
     7D5:	AD19      	ld         x, @0x33AD <patch_pending_mode+0x1>
     7D6:	D300      	**prefx    0xD3
     7D7:	C938      	add        x, #-0x2D37
     7D8:	02B0      	or         ah, #+0x2
     7D9:	5F14      	ld         al, #+0x5F
     7DA:	FF2B      	st         x, @(-0x1, y)
     7DB:	FF9F      	bsr        @(-0x1, y)
     7DC:	3400      	**prefx    0x34
     7DD:	AD11      	ld         ah, @0x33AD <patch_pending_mode+0x1>
     7DE:	D200      	**prefx    0xD2
     7DF:	2630      	add        ah, #-0x2DDA
     7E0:	E415      	ld         al, @0xFFE4 <register uy>
     7E1:	0134      	add        al, #+0x1
     7E2:	FF23      	st         ah, @(-0x1, y)
     7E3:	FF9F      	bsr        @(-0x1, y)
     7E4:	3400      	**prefx    0x34
     7E5:	AD15      	ld         al, @0x33AD <patch_pending_mode+0x1>
     7E6:	E500      	**prefx    0xE5
     7E7:	B034      	add        al, #-0x1B50
     7E8:	FF27      	st         al, @(-0x1, y)
     7E9:	FF9F      	bsr        @(-0x1, y)
     7EA:	1B17      	ld         al, @(+0x1B, y)
     7EB:	0600      	**prefx    0x6
     7EC:	3F9C      	bsr        +0x63F <___libgatt_lib_db_4636:0xE2B[p]>
     7ED:	E199      	tst        @0xFFE1 <register al>
     7EE:	FF00      	**prefx    0xFF
     7EF:	73F4      	beq        -0x8D <UART_RATE_460K8+0x2:0x762[p]>
     7F0:	3400      	**prefx    0x34
     7F1:	AD19      	ld         x, @0x33AD <patch_pending_mode+0x1>
     7F2:	C900      	**prefx    0xC9
     7F3:	4238      	add        x, #-0x36BE
     7F4:	0014      	ld         al, #+0x0
     7F5:	0027      	st         al, @(0x0, y)
     7F6:	1B17      	ld         al, @(+0x1B, y)
     7F7:	E411      	ld         ah, @0xFFE4 <register uy>
     7F8:	0230      	add        ah, #+0x2
     7F9:	FF2B      	st         x, @(-0x1, y)
     7FA:	FF9F      	bsr        @(-0x1, y)
     7FB:	3B0F      	leave      #+0x3B
     7FC:	1E0F      	leave      #+0x1E

0x000007FD <.LFB20>:
     7FD:	160B      	enter      #+0x16
     7FE:	1427      	st         al, @(+0x14, y)
     7FF:	3400      	**prefx    0x34
     800:	AD19      	ld         x, @0x33AD <patch_pending_mode+0x1>
     801:	B700      	**prefx    0xB7
     802:	E838      	add        x, #-0x4918
     803:	0B00      	**prefx    0xB
     804:	B614      	ld         al, #+0xAB6
     805:	0910      	ld         ah, #+0x9
     806:	FF2B      	st         x, @(-0x1, y)
     807:	FF9F      	bsr        @(-0x1, y)
     808:	1327      	st         al, @(+0x13, y)
     809:	1417      	ld         al, @(+0x14, y)
     80A:	0600      	**prefx    0x6
     80B:	739C      	bsr        +0x673 <___libgatt_lib_db_4637:0xE7E[p]>
     80C:	3400      	**prefx    0x34
     80D:	AD19      	ld         x, @0x33AD <patch_pending_mode+0x1>
     80E:	D200      	**prefx    0xD2
     80F:	1E38      	add        x, #-0x2DE2
     810:	1417      	ld         al, @(+0x14, y)
     811:	E411      	ld         ah, @0xFFE4 <register uy>
     812:	0230      	add        ah, #+0x2
     813:	FF2B      	st         x, @(-0x1, y)
     814:	FF9F      	bsr        @(-0x1, y)
     815:	3400      	**prefx    0x34
     816:	AD19      	ld         x, @0x33AD <patch_pending_mode+0x1>
     817:	D200      	**prefx    0xD2
     818:	7D38      	add        x, #-0x2D83
     819:	E411      	ld         ah, @0xFFE4 <register uy>
     81A:	0630      	add        ah, #+0x6
     81B:	0023      	st         ah, @(0x0, y)
     81C:	5514      	ld         al, #+0x55
     81D:	FD30      	add        ah, #-0x3
     81E:	FF2B      	st         x, @(-0x1, y)
     81F:	FF9F      	bsr        @(-0x1, y)
     820:	3400      	**prefx    0x34
     821:	AD19      	ld         x, @0x33AD <patch_pending_mode+0x1>
     822:	D200      	**prefx    0xD2
     823:	7D38      	add        x, #-0x2D83
     824:	E411      	ld         ah, @0xFFE4 <register uy>
     825:	0830      	add        ah, #+0x8
     826:	0023      	st         ah, @(0x0, y)
     827:	5314      	ld         al, #+0x53
     828:	FC30      	add        ah, #-0x4
     829:	FF2B      	st         x, @(-0x1, y)
     82A:	FF9F      	bsr        @(-0x1, y)
     82B:	3400      	**prefx    0x34
     82C:	AD19      	ld         x, @0x33AD <patch_pending_mode+0x1>
     82D:	D200      	**prefx    0xD2
     82E:	7D38      	add        x, #-0x2D83
     82F:	E411      	ld         ah, @0xFFE4 <register uy>
     830:	0A30      	add        ah, #+0xA
     831:	0023      	st         ah, @(0x0, y)
     832:	3814      	ld         al, #+0x38
     833:	FB30      	add        ah, #-0x5
     834:	FF2B      	st         x, @(-0x1, y)
     835:	FF9F      	bsr        @(-0x1, y)
     836:	3400      	**prefx    0x34
     837:	AD11      	ld         ah, @0x33AD <patch_pending_mode+0x1>
     838:	D300      	**prefx    0xD3
     839:	DE30      	add        ah, #-0x2D22
     83A:	0014      	ld         al, #+0x0
     83B:	FF23      	st         ah, @(-0x1, y)
     83C:	FF9F      	bsr        @(-0x1, y)
     83D:	1227      	st         al, @(+0x12, y)
     83E:	3400      	**prefx    0x34
     83F:	AD11      	ld         ah, @0x33AD <patch_pending_mode+0x1>
     840:	D200      	**prefx    0xD2
     841:	2630      	add        ah, #-0x2DDA
     842:	E415      	ld         al, @0xFFE4 <register uy>
     843:	0234      	add        al, #+0x2
     844:	FF23      	st         ah, @(-0x1, y)
     845:	FF9F      	bsr        @(-0x1, y)
     846:	0613      	ld         ah, @(+0x6, y)
     847:	0717      	ld         al, @(+0x7, y)
     848:	0127      	st         al, @(+0x1, y)
     849:	0023      	st         ah, @(0x0, y)
     84A:	E415      	ld         al, @0xFFE4 <register uy>
     84B:	0C34      	add        al, #+0xC
     84C:	0313      	ld         ah, @(+0x3, y)
     84D:	FF00      	**prefx    0xFF
     84E:	AE9C      	bsr        -0x152 <___libgatt_lib_db_4607:0x6FC[p]>
     84F:	0813      	ld         ah, @(+0x8, y)
     850:	091B      	ld         x, @(+0x9, y)
     851:	012B      	st         x, @(+0x1, y)
     852:	0023      	st         ah, @(0x0, y)
     853:	E415      	ld         al, @0xFFE4 <register uy>
     854:	0F34      	add        al, #+0xF
     855:	0413      	ld         ah, @(+0x4, y)
     856:	FF00      	**prefx    0xFF
     857:	A59C      	bsr        -0x15B <___libgatt_lib_db_4607:0x6FC[p]>
     858:	E411      	ld         ah, @0xFFE4 <register uy>
     859:	0C30      	add        ah, #+0xC
     85A:	0023      	st         ah, @(0x0, y)
     85B:	E415      	ld         al, @0xFFE4 <register uy>
     85C:	0F34      	add        al, #+0xF
     85D:	E111      	ld         ah, @0xFFE1 <register al>
     85E:	0100      	**prefx    0x1
     85F:	8500      	**prefx    0x85
     860:	FA9C      	bsr        +0x84FA <TimeSub48:0x8D5A[p]>
     861:	109B      	tst        @(+0x10, y)
     862:	03F0      	bne        +0x3 <___libgatt_lib_db_1063+0x65:0x865[p]>
     863:	119B      	tst        @(+0x11, y)
     864:	03F4      	beq        +0x3 <___libgatt_lib_db_1063+0x67:0x867[p]>
     865:	FF14      	ld         al, #-0x1
     866:	0F27      	st         al, @(+0xF, y)
     867:	0F13      	ld         ah, @(+0xF, y)
     868:	131B      	ld         x, @(+0x13, y)
     869:	0222      	st         ah, @(+0x2, x)
     86A:	F700      	**prefx    0xF7
     86B:	B311      	ld         ah, @0xF6B3 <___libgatt_lib_db_2015>
     86C:	E415      	ld         al, @0xFFE4 <register uy>
     86D:	0C34      	add        al, #+0xC
     86E:	0100      	**prefx    0x1
     86F:	8500      	**prefx    0x85
     870:	DE9C      	bsr        +0x84DE <TimeIncrement48:0x8D4E[p]>
     871:	1317      	ld         al, @(+0x13, y)
     872:	0634      	add        al, #+0x6
     873:	3400      	**prefx    0x34
     874:	B818      	ld         x, #+0x33B8
     875:	002B      	st         x, @(0x0, y)
     876:	E411      	ld         ah, @0xFFE4 <register uy>
     877:	0C30      	add        ah, #+0xC
     878:	0100      	**prefx    0x1
     879:	8500      	**prefx    0x85
     87A:	E09C      	bsr        +0x84E0 <TimeSub48:0x8D5A[p]>
     87B:	0A13      	ld         ah, @(+0xA, y)
     87C:	0B17      	ld         al, @(+0xB, y)
     87D:	0127      	st         al, @(+0x1, y)
     87E:	0023      	st         ah, @(0x0, y)
     87F:	E415      	ld         al, @0xFFE4 <register uy>
     880:	0F34      	add        al, #+0xF
     881:	0513      	ld         ah, @(+0x5, y)
     882:	FE00      	**prefx    0xFE
     883:	799C      	bsr        -0x187 <___libgatt_lib_db_4607:0x6FC[p]>
     884:	E419      	ld         x, @0xFFE4 <register uy>
     885:	0C38      	add        x, #+0xC
     886:	002B      	st         x, @(0x0, y)
     887:	E415      	ld         al, @0xFFE4 <register uy>
     888:	0F34      	add        al, #+0xF
     889:	E111      	ld         ah, @0xFFE1 <register al>
     88A:	0100      	**prefx    0x1
     88B:	8500      	**prefx    0x85
     88C:	CE9C      	bsr        +0x84CE <TimeSub48:0x8D5A[p]>
     88D:	1217      	ld         al, @(+0x12, y)
     88E:	0009      	**unsigned
     88F:	0500      	**prefx    0x5
     890:	E290      	umult      #0x4E2
     891:	0127      	st         al, @(+0x1, y)
     892:	0023      	st         ah, @(0x0, y)
     893:	E415      	ld         al, @0xFFE4 <register uy>
     894:	0C34      	add        al, #+0xC
     895:	0010      	ld         ah, #+0x0
     896:	FE00      	**prefx    0xFE
     897:	659C      	bsr        -0x19B <___libgatt_lib_db_4607:0x6FC[p]>
     898:	1317      	ld         al, @(+0x13, y)
     899:	0334      	add        al, #+0x3
     89A:	E419      	ld         x, @0xFFE4 <register uy>
     89B:	0C38      	add        x, #+0xC
     89C:	002B      	st         x, @(0x0, y)
     89D:	E411      	ld         ah, @0xFFE4 <register uy>
     89E:	0F30      	add        ah, #+0xF
     89F:	0100      	**prefx    0x1
     8A0:	8500      	**prefx    0x85
     8A1:	B99C      	bsr        +0x84B9 <TimeSub48:0x8D5A[p]>
     8A2:	3400      	**prefx    0x34
     8A3:	AD11      	ld         ah, @0x33AD <patch_pending_mode+0x1>
     8A4:	B900      	**prefx    0xB9
     8A5:	AF30      	add        ah, #-0x4751
     8A6:	1417      	ld         al, @(+0x14, y)
     8A7:	FF23      	st         ah, @(-0x1, y)
     8A8:	FF9F      	bsr        @(-0x1, y)
     8A9:	131B      	ld         x, @(+0x13, y)
     8AA:	0126      	st         al, @(+0x1, x)
     8AB:	3400      	**prefx    0x34
     8AC:	AD11      	ld         ah, @0x33AD <patch_pending_mode+0x1>
     8AD:	B600      	**prefx    0xB6
     8AE:	2030      	add        ah, #-0x49E0
     8AF:	E315      	ld         al, @0xFFE3 <register uxl>
     8B0:	FF23      	st         ah, @(-0x1, y)
     8B1:	FF9F      	bsr        @(-0x1, y)
     8B2:	160F      	leave      #+0x16

0x000008B3 <.LFB13>:
     8B3:	0C0B      	enter      #+0xC
     8B4:	0927      	st         al, @(+0x9, y)
     8B5:	0A23      	st         ah, @(+0xA, y)
     8B6:	E015      	ld         al, @0xFFE0 <register ah>
     8B7:	4000      	**prefx    0x40
     8B8:	00C4      	and        al, #0x4000
     8B9:	5BF4      	beq        +0x5B <.LFB13+0x61:0x914[p]>
     8BA:	091B      	ld         x, @(+0x9, y)
     8BB:	9700      	**prefx    0x97
     8BC:	5516      	ld         al, @(-0x68AB, x)
     8BD:	0684      	cmp        al, #+0x6
     8BE:	52F0      	bne        +0x52 <.LFB13+0x5D:0x910[p]>
     8BF:	E315      	ld         al, @0xFFE3 <register uxl>
     8C0:	5790      	smult      #+0x57
     8C1:	E119      	ld         x, @0xFFE1 <register al>
     8C2:	9700      	**prefx    0x97
     8C3:	6B38      	add        x, #-0x6895
     8C4:	5516      	ld         al, @(+0x55, x)
     8C5:	0384      	cmp        al, #+0x3
     8C6:	03F0      	bne        +0x3 <.LFB13+0x16:0x8C9[p]>
     8C7:	0014      	ld         al, #+0x0
     8C8:	5626      	st         al, @(+0x56, x)
     8C9:	5516      	ld         al, @(+0x55, x)
     8CA:	0284      	cmp        al, #+0x2
     8CB:	45F0      	bne        +0x45 <.LFB13+0x5D:0x910[p]>
     8CC:	9700      	**prefx    0x97
     8CD:	5799      	tst        @0x9757 <le_device+0x2>
     8CE:	25F0      	bne        +0x25 <.LFB13+0x40:0x8F3[p]>
     8CF:	3400      	**prefx    0x34
     8D0:	AD19      	ld         x, @0x33AD <patch_pending_mode+0x1>
     8D1:	D200      	**prefx    0xD2
     8D2:	1E38      	add        x, #-0x2DE2
     8D3:	0917      	ld         al, @(+0x9, y)
     8D4:	E411      	ld         ah, @0xFFE4 <register uy>
     8D5:	FF2B      	st         x, @(-0x1, y)
     8D6:	FF9F      	bsr        @(-0x1, y)
     8D7:	3400      	**prefx    0x34
     8D8:	AD11      	ld         ah, @0x33AD <patch_pending_mode+0x1>
     8D9:	D300      	**prefx    0xD3
     8DA:	DE30      	add        ah, #-0x2D22
     8DB:	1D14      	ld         al, #+0x1D
     8DC:	FF23      	st         ah, @(-0x1, y)
     8DD:	FF9F      	bsr        @(-0x1, y)
     8DE:	0627      	st         al, @(+0x6, y)
     8DF:	3400      	**prefx    0x34
     8E0:	AD11      	ld         ah, @0x33AD <patch_pending_mode+0x1>
     8E1:	D200      	**prefx    0xD2
     8E2:	2630      	add        ah, #-0x2DDA
     8E3:	E415      	ld         al, @0xFFE4 <register uy>
     8E4:	FF23      	st         ah, @(-0x1, y)
     8E5:	FF9F      	bsr        @(-0x1, y)
     8E6:	0617      	ld         al, @(+0x6, y)
     8E7:	07C4      	and        al, #0x7
     8E8:	0684      	cmp        al, #+0x6
     8E9:	06F0      	bne        +0x6 <.LFB13+0x3C:0x8EF[p]>
     8EA:	4B00      	**prefx    0x4B
     8EB:	4B18      	ld         x, #+0x4B4B
     8EC:	F600      	**prefx    0xF6
     8ED:	4F29      	st         x, @0xF64F <___libgatt_lib_db_1805>
     8EE:	22E0      	bra        +0x22 <.LFB13+0x5D:0x910[p]>
     8EF:	7F00      	**prefx    0x7F
     8F0:	4A14      	ld         al, #+0x7F4A
     8F1:	F600      	**prefx    0xF6
     8F2:	4F25      	st         al, @0xF64F <___libgatt_lib_db_1805>
     8F3:	3400      	**prefx    0x34
     8F4:	AD19      	ld         x, @0x33AD <patch_pending_mode+0x1>
     8F5:	B700      	**prefx    0xB7
     8F6:	E838      	add        x, #-0x4918
     8F7:	0B00      	**prefx    0xB
     8F8:	F814      	ld         al, #+0xAF8
     8F9:	0310      	ld         ah, #+0x3
     8FA:	FF2B      	st         x, @(-0x1, y)
     8FB:	FF9F      	bsr        @(-0x1, y)
     8FC:	0727      	st         al, @(+0x7, y)
     8FD:	13F4      	beq        +0x13 <.LFB13+0x5D:0x910[p]>
     8FE:	3400      	**prefx    0x34
     8FF:	AD11      	ld         ah, @0x33AD <patch_pending_mode+0x1>
     900:	B900      	**prefx    0xB9
     901:	AF30      	add        ah, #-0x4751
     902:	0917      	ld         al, @(+0x9, y)
     903:	FF23      	st         ah, @(-0x1, y)
     904:	FF9F      	bsr        @(-0x1, y)
     905:	071B      	ld         x, @(+0x7, y)
     906:	0126      	st         al, @(+0x1, x)
     907:	0214      	ld         al, #+0x2
     908:	0226      	st         al, @(+0x2, x)
     909:	3400      	**prefx    0x34
     90A:	AD11      	ld         ah, @0x33AD <patch_pending_mode+0x1>
     90B:	B600      	**prefx    0xB6
     90C:	2030      	add        ah, #-0x49E0
     90D:	E315      	ld         al, @0xFFE3 <register uxl>
     90E:	FF23      	st         ah, @(-0x1, y)
     90F:	FF9F      	bsr        @(-0x1, y)
     910:	0A17      	ld         al, @(+0xA, y)
     911:	C000      	**prefx    0xC0
     912:	FFC4      	and        al, #0xBFFF
     913:	0A27      	st         al, @(+0xA, y)
     914:	0A17      	ld         al, @(+0xA, y)
     915:	04C4      	and        al, #0x4
     916:	4CF4      	beq        +0x4C <.LFB13+0xAF:0x962[p]>
     917:	0A17      	ld         al, @(+0xA, y)
     918:	40C4      	and        al, #0x40
     919:	49F0      	bne        +0x49 <.LFB13+0xAF:0x962[p]>
     91A:	3400      	**prefx    0x34
     91B:	AA99      	tst        @0x33AA <patch_pending>
     91C:	04F0      	bne        +0x4 <.LFB13+0x6D:0x920[p]>
     91D:	3400      	**prefx    0x34
     91E:	AB99      	tst        @0x33AB <patch_rx_timing_report>
     91F:	43F4      	beq        +0x43 <.LFB13+0xAF:0x962[p]>
     920:	091B      	ld         x, @(+0x9, y)
     921:	9700      	**prefx    0x97
     922:	5516      	ld         al, @(-0x68AB, x)
     923:	0684      	cmp        al, #+0x6
     924:	03F4      	beq        +0x3 <.LFB13+0x74:0x927[p]>
     925:	0484      	cmp        al, #+0x4
     926:	3CF0      	bne        +0x3C <.LFB13+0xAF:0x962[p]>
     927:	3400      	**prefx    0x34
     928:	AD11      	ld         ah, @0x33AD <patch_pending_mode+0x1>
     929:	B600      	**prefx    0xB6
     92A:	9730      	add        ah, #-0x4A69
     92B:	E415      	ld         al, @0xFFE4 <register uy>
     92C:	0134      	add        al, #+0x1
     92D:	FF23      	st         ah, @(-0x1, y)
     92E:	FF9F      	bsr        @(-0x1, y)
     92F:	3400      	**prefx    0x34
     930:	AD15      	ld         al, @0x33AD <patch_pending_mode+0x1>
     931:	0327      	st         al, @(+0x3, y)
     932:	3400      	**prefx    0x34
     933:	AD11      	ld         ah, @0x33AD <patch_pending_mode+0x1>
     934:	D400      	**prefx    0xD4
     935:	F230      	add        ah, #-0x2C0E
     936:	0917      	ld         al, @(+0x9, y)
     937:	FF23      	st         ah, @(-0x1, y)
     938:	FF9F      	bsr        @(-0x1, y)
     939:	031B      	ld         x, @(+0x3, y)
     93A:	B600      	**prefx    0xB6
     93B:	B938      	add        x, #-0x4A47
     93C:	032B      	st         x, @(+0x3, y)
     93D:	039F      	bsr        @(+0x3, y)
     93E:	0527      	st         al, @(+0x5, y)
     93F:	3400      	**prefx    0x34
     940:	AD11      	ld         ah, @0x33AD <patch_pending_mode+0x1>
     941:	D400      	**prefx    0xD4
     942:	A630      	add        ah, #-0x2C5A
     943:	0917      	ld         al, @(+0x9, y)
     944:	FF23      	st         ah, @(-0x1, y)
     945:	FF9F      	bsr        @(-0x1, y)
     946:	0537      	add        al, @(+0x5, y)
     947:	E119      	ld         x, @0xFFE1 <register al>
     948:	0016      	ld         al, @(0x0, x)
     949:	03C4      	and        al, #0x3
     94A:	0427      	st         al, @(+0x4, y)
     94B:	3400      	**prefx    0x34
     94C:	AD11      	ld         ah, @0x33AD <patch_pending_mode+0x1>
     94D:	B600      	**prefx    0xB6
     94E:	A030      	add        ah, #-0x4A60
     94F:	E415      	ld         al, @0xFFE4 <register uy>
     950:	0134      	add        al, #+0x1
     951:	FF23      	st         ah, @(-0x1, y)
     952:	FF9F      	bsr        @(-0x1, y)
     953:	0417      	ld         al, @(+0x4, y)
     954:	0284      	cmp        al, #+0x2
     955:	0DF0      	bne        +0xD <.LFB13+0xAF:0x962[p]>
     956:	3400      	**prefx    0x34
     957:	AA99      	tst        @0x33AA <patch_pending>
     958:	04F4      	beq        +0x4 <.LFB13+0xA9:0x95C[p]>
     959:	0917      	ld         al, @(+0x9, y)
     95A:	0300      	**prefx    0x3
     95B:	FD9C      	bsr        +0x2FD <___libgatt_lib_db_4625:0xC58[p]>
     95C:	3400      	**prefx    0x34
     95D:	AB99      	tst        @0x33AB <patch_rx_timing_report>
     95E:	04F4      	beq        +0x4 <.LFB13+0xAF:0x962[p]>
     95F:	0917      	ld         al, @(+0x9, y)
     960:	FF00      	**prefx    0xFF
     961:	9C9C      	bsr        -0x164 <.LFB20:0x7FD[p]>
     962:	3400      	**prefx    0x34
     963:	AD19      	ld         x, @0x33AD <patch_pending_mode+0x1>
     964:	C300      	**prefx    0xC3
     965:	5138      	add        x, #-0x3CAF
     966:	0917      	ld         al, @(+0x9, y)
     967:	0A13      	ld         ah, @(+0xA, y)
     968:	FF2B      	st         x, @(-0x1, y)
     969:	FF9F      	bsr        @(-0x1, y)
     96A:	0A9B      	tst        @(+0xA, y)
     96B:	32E8      	bpl        +0x32 <.LFB13+0xEA:0x99D[p]>
     96C:	091B      	ld         x, @(+0x9, y)
     96D:	9700      	**prefx    0x97
     96E:	559A      	tst        @(-0x68AB, x)
     96F:	2EF4      	beq        +0x2E <.LFB13+0xEA:0x99D[p]>
     970:	0014      	ld         al, #+0x0
     971:	0500      	**prefx    0x5
     972:	0C9C      	bsr        +0x50C <___libgatt_lib_db_4637:0xE7E[p]>
     973:	3400      	**prefx    0x34
     974:	AD19      	ld         x, @0x33AD <patch_pending_mode+0x1>
     975:	D200      	**prefx    0xD2
     976:	1E38      	add        x, #-0x2DE2
     977:	0917      	ld         al, @(+0x9, y)
     978:	E411      	ld         ah, @0xFFE4 <register uy>
     979:	FF2B      	st         x, @(-0x1, y)
     97A:	FF9F      	bsr        @(-0x1, y)
     97B:	3400      	**prefx    0x34
     97C:	AD11      	ld         ah, @0x33AD <patch_pending_mode+0x1>
     97D:	D300      	**prefx    0xD3
     97E:	DE30      	add        ah, #-0x2D22
     97F:	2514      	ld         al, #+0x25
     980:	FF23      	st         ah, @(-0x1, y)
     981:	FF9F      	bsr        @(-0x1, y)
     982:	0827      	st         al, @(+0x8, y)
     983:	3400      	**prefx    0x34
     984:	AD11      	ld         ah, @0x33AD <patch_pending_mode+0x1>
     985:	D200      	**prefx    0xD2
     986:	2630      	add        ah, #-0x2DDA
     987:	E415      	ld         al, @0xFFE4 <register uy>
     988:	FF23      	st         ah, @(-0x1, y)
     989:	FF9F      	bsr        @(-0x1, y)
     98A:	0817      	ld         al, @(+0x8, y)
     98B:	0100      	**prefx    0x1
     98C:	CA84      	cmp        al, #+0xCA
     98D:	10F0      	bne        +0x10 <.LFB13+0xEA:0x99D[p]>
     98E:	F100      	**prefx    0xF1
     98F:	1215      	ld         al, @0xF112 <___libgatt_lib_db_1698>
     990:	04B4      	or         al, #+0x4
     991:	F100      	**prefx    0xF1
     992:	1225      	st         al, @0xF112 <___libgatt_lib_db_1698>
     993:	0014      	ld         al, #+0x0
     994:	0000      	**prefx    0x0
     995:	0134      	add        al, #+0x1
     996:	6484      	cmp        al, #+0x64
     997:	FDF0      	bne        -0x3 <.LFB13+0xE1:0x994[p]>
     998:	F100      	**prefx    0xF1
     999:	1215      	ld         al, @0xF112 <___libgatt_lib_db_1698>
     99A:	FBC4      	and        al, #0xFFFB
     99B:	F100      	**prefx    0xF1
     99C:	1225      	st         al, @0xF112 <___libgatt_lib_db_1698>
     99D:	0C0F      	leave      #+0xC

0x0000099E <___libgatt_lib_db_4550>:
     99E:	020B      	enter      #+0x2
     99F:	F600      	**prefx    0xF6
     9A0:	4C15      	ld         al, @0xF64C <___libgatt_lib_db_1778>
     9A1:	0027      	st         al, @(0x0, y)
     9A2:	F600      	**prefx    0xF6
     9A3:	4925      	st         al, @0xF649 <___libgatt_lib_db_1779>
     9A4:	E111      	ld         ah, @0xFFE1 <register al>
     9A5:	B7C0      	and        ah, #0xFFB7
     9A6:	0114      	ld         al, #+0x1
     9A7:	FF00      	**prefx    0xFF
     9A8:	0B9C      	bsr        -0xF5 <.LFB13:0x8B3[p]>
     9A9:	0017      	ld         al, @(0x0, y)
     9AA:	08C4      	and        al, #0x8
     9AB:	0BF4      	beq        +0xB <___libgatt_lib_db_4550+0x18:0x9B6[p]>
     9AC:	9700      	**prefx    0x97
     9AD:	5699      	tst        @0x9756 <le_device+0x1>
     9AE:	08F4      	beq        +0x8 <___libgatt_lib_db_4550+0x18:0x9B6[p]>
     9AF:	0114      	ld         al, #+0x1
     9B0:	0500      	**prefx    0x5
     9B1:	CD9C      	bsr        +0x4CD <___libgatt_lib_db_4637:0xE7E[p]>
     9B2:	0114      	ld         al, #+0x1
     9B3:	0810      	ld         ah, #+0x8
     9B4:	FF00      	**prefx    0xFF
     9B5:	FE9C      	bsr        -0x102 <.LFB13:0x8B3[p]>
     9B6:	0017      	ld         al, @(0x0, y)
     9B7:	40C4      	and        al, #0x40
     9B8:	04F4      	beq        +0x4 <___libgatt_lib_db_4550+0x1E:0x9BC[p]>
     9B9:	0114      	ld         al, #+0x1
     9BA:	FD00      	**prefx    0xFD
     9BB:	0D9C      	bsr        -0x2F3 <.LFB16:0x6C8[p]>
     9BC:	020F      	leave      #+0x2

0x000009BD <___libgatt_lib_db_4549>:
     9BD:	020B      	enter      #+0x2
     9BE:	F600      	**prefx    0xF6
     9BF:	4B15      	ld         al, @0xF64B <___libgatt_lib_db_1776>
     9C0:	0027      	st         al, @(0x0, y)
     9C1:	F600      	**prefx    0xF6
     9C2:	4825      	st         al, @0xF648 <___libgatt_lib_db_1777>
     9C3:	E111      	ld         ah, @0xFFE1 <register al>
     9C4:	B7C0      	and        ah, #0xFFB7
     9C5:	0014      	ld         al, #+0x0
     9C6:	FF00      	**prefx    0xFF
     9C7:	EC9C      	bsr        -0x114 <.LFB13:0x8B3[p]>
     9C8:	0017      	ld         al, @(0x0, y)
     9C9:	08C4      	and        al, #0x8
     9CA:	0BF4      	beq        +0xB <___libgatt_lib_db_4549+0x18:0x9D5[p]>
     9CB:	9700      	**prefx    0x97
     9CC:	5599      	tst        @0x9755 <le_device>
     9CD:	08F4      	beq        +0x8 <___libgatt_lib_db_4549+0x18:0x9D5[p]>
     9CE:	0014      	ld         al, #+0x0
     9CF:	0500      	**prefx    0x5
     9D0:	AE9C      	bsr        +0x4AE <___libgatt_lib_db_4637:0xE7E[p]>
     9D1:	0014      	ld         al, #+0x0
     9D2:	0810      	ld         ah, #+0x8
     9D3:	FF00      	**prefx    0xFF
     9D4:	DF9C      	bsr        -0x121 <.LFB13:0x8B3[p]>
     9D5:	0017      	ld         al, @(0x0, y)
     9D6:	40C4      	and        al, #0x40
     9D7:	04F4      	beq        +0x4 <___libgatt_lib_db_4549+0x1E:0x9DB[p]>
     9D8:	0014      	ld         al, #+0x0
     9D9:	FD00      	**prefx    0xFD
     9DA:	EE9C      	bsr        -0x312 <.LFB16:0x6C8[p]>
     9DB:	0017      	ld         al, @(0x0, y)
     9DC:	1000      	**prefx    0x10
     9DD:	00C4      	and        al, #0x1000
     9DE:	0EF4      	beq        +0xE <___libgatt_lib_db_4549+0x2F:0x9EC[p]>
     9DF:	F600      	**prefx    0xF6
     9E0:	3D15      	ld         al, @0xF63D <___libgatt_lib_db_1819>
     9E1:	F000      	**prefx    0xF0
     9E2:	FFC4      	and        al, #0xEFFF
     9E3:	F600      	**prefx    0xF6
     9E4:	3D25      	st         al, @0xF63D <___libgatt_lib_db_1819>
     9E5:	3400      	**prefx    0x34
     9E6:	AD11      	ld         ah, @0x33AD <patch_pending_mode+0x1>
     9E7:	E400      	**prefx    0xE4
     9E8:	F630      	add        ah, #-0x1C0A
     9E9:	0114      	ld         al, #+0x1
     9EA:	FF23      	st         ah, @(-0x1, y)
     9EB:	FF9F      	bsr        @(-0x1, y)
     9EC:	020F      	leave      #+0x2

0x000009ED <___libgatt_lib_db_4608>:
     9ED:	210B      	enter      #+0x21
     9EE:	1727      	st         al, @(+0x17, y)
     9EF:	1823      	st         ah, @(+0x18, y)
     9F0:	5790      	smult      #+0x57
     9F1:	9700      	**prefx    0x97
     9F2:	6B34      	add        al, #-0x6895
     9F3:	1227      	st         al, @(+0x12, y)
     9F4:	3400      	**prefx    0x34
     9F5:	AD15      	ld         al, @0x33AD <patch_pending_mode+0x1>
     9F6:	E500      	**prefx    0xE5
     9F7:	A734      	add        al, #-0x1B59
     9F8:	FF27      	st         al, @(-0x1, y)
     9F9:	FF9F      	bsr        @(-0x1, y)
     9FA:	0010      	ld         ah, #+0x0
     9FB:	121B      	ld         x, @(+0x12, y)
     9FC:	5522      	st         ah, @(+0x55, x)
     9FD:	5622      	st         ah, @(+0x56, x)
     9FE:	3400      	**prefx    0x34
     9FF:	AD11      	ld         ah, @0x33AD <patch_pending_mode+0x1>
     A00:	E000      	**prefx    0xE0
     A01:	1930      	add        ah, #-0x1FE7
     A02:	4C16      	ld         al, @(+0x4C, x)
     A03:	FF23      	st         ah, @(-0x1, y)
     A04:	FF9F      	bsr        @(-0x1, y)
     A05:	0010      	ld         ah, #+0x0
     A06:	121B      	ld         x, @(+0x12, y)
     A07:	4C22      	st         ah, @(+0x4C, x)
     A08:	3400      	**prefx    0x34
     A09:	AD11      	ld         ah, @0x33AD <patch_pending_mode+0x1>
     A0A:	BA00      	**prefx    0xBA
     A0B:	9430      	add        ah, #-0x466C
     A0C:	1717      	ld         al, @(+0x17, y)
     A0D:	FF23      	st         ah, @(-0x1, y)
     A0E:	FF9F      	bsr        @(-0x1, y)
     A0F:	171B      	ld         x, @(+0x17, y)
     A10:	9700      	**prefx    0x97
     A11:	5516      	ld         al, @(-0x68AB, x)
     A12:	FF34      	add        al, #-0x1
     A13:	0184      	cmp        al, #+0x1
     A14:	102C      	bcz        +0x10 <___libgatt_lib_db_4608+0x37:0xA24[p]>
     A15:	9700      	**prefx    0x97
     A16:	5799      	tst        @0x9757 <le_device+0x2>
     A17:	0DF0      	bne        +0xD <___libgatt_lib_db_4608+0x37:0xA24[p]>
     A18:	3400      	**prefx    0x34
     A19:	AD11      	ld         ah, @0x33AD <patch_pending_mode+0x1>
     A1A:	E000      	**prefx    0xE0
     A1B:	1930      	add        ah, #-0x1FE7
     A1C:	9700      	**prefx    0x97
     A1D:	5915      	ld         al, @0x9759 <le_device+0x4>
     A1E:	FF23      	st         ah, @(-0x1, y)
     A1F:	FF9F      	bsr        @(-0x1, y)
     A20:	9700      	**prefx    0x97
     A21:	5518      	ld         x, #-0x68AB
     A22:	0010      	ld         ah, #+0x0
     A23:	0422      	st         ah, @(+0x4, x)
     A24:	3400      	**prefx    0x34
     A25:	AD19      	ld         x, @0x33AD <patch_pending_mode+0x1>
     A26:	D200      	**prefx    0xD2
     A27:	1E38      	add        x, #-0x2DE2
     A28:	1717      	ld         al, @(+0x17, y)
     A29:	1813      	ld         ah, @(+0x18, y)
     A2A:	FF2B      	st         x, @(-0x1, y)
     A2B:	FF9F      	bsr        @(-0x1, y)
     A2C:	171B      	ld         x, @(+0x17, y)
     A2D:	9700      	**prefx    0x97
     A2E:	559A      	tst        @(-0x68AB, x)
     A2F:	0100      	**prefx    0x1
     A30:	86F4      	beq        +0x86 <___libgatt_lib_db_4608+0xC9:0xAB6[p]>
     A31:	E415      	ld         al, @0xFFE4 <register uy>
     A32:	0734      	add        al, #+0x7
     A33:	0400      	**prefx    0x4
     A34:	519C      	bsr        +0x451 <___libgatt_lib_db_4651:0xE85[p]>
     A35:	0710      	ld         ah, #+0x7
     A36:	F800      	**prefx    0xF8
     A37:	5621      	st         ah, @0xF856 <___libgatt_lib_db_3128>
     A38:	2814      	ld         al, #+0x28
     A39:	F000      	**prefx    0xF0
     A3A:	5625      	st         al, @0xF056 <___libgatt_lib_db_1695>
     A3B:	0018      	ld         x, #+0x0
     A3C:	0E2B      	st         x, @(+0xE, y)
     A3D:	0F2B      	st         x, @(+0xF, y)
     A3E:	0D2B      	st         x, @(+0xD, y)
     A3F:	03E0      	bra        +0x3 <___libgatt_lib_db_4608+0x55:0xA42[p]>
     A40:	0110      	ld         ah, #+0x1
     A41:	0D23      	st         ah, @(+0xD, y)
     A42:	FC00      	**prefx    0xFC
     A43:	9311      	ld         ah, @0xFB93 <___libgatt_lib_db_3122>
     A44:	E015      	ld         al, @0xFFE0 <register ah>
     A45:	0100      	**prefx    0x1
     A46:	80C4      	and        al, #0x80
     A47:	21F4      	beq        +0x21 <___libgatt_lib_db_4608+0x7B:0xA68[p]>
     A48:	E015      	ld         al, @0xFFE0 <register ah>
     A49:	07C4      	and        al, #0x7
     A4A:	1EF4      	beq        +0x1E <___libgatt_lib_db_4608+0x7B:0xA68[p]>
     A4B:	0184      	cmp        al, #+0x1
     A4C:	04F4      	beq        +0x4 <___libgatt_lib_db_4608+0x63:0xA50[p]>
     A4D:	0014      	ld         al, #+0x0
     A4E:	0D27      	st         al, @(+0xD, y)
     A4F:	F3E0      	bra        -0xD <___libgatt_lib_db_4608+0x55:0xA42[p]>
     A50:	0D9B      	tst        @(+0xD, y)
     A51:	11F4      	beq        +0x11 <___libgatt_lib_db_4608+0x75:0xA62[p]>
     A52:	0100      	**prefx    0x1
     A53:	8300      	**prefx    0x83
     A54:	CF9C      	bsr        +0x82CF <TimeGet32:0x8D23[p]>
     A55:	1A27      	st         al, @(+0x1A, y)
     A56:	1923      	st         ah, @(+0x19, y)
     A57:	1A17      	ld         al, @(+0x1A, y)
     A58:	1913      	ld         ah, @(+0x19, y)
     A59:	0F57      	sub        al, @(+0xF, y)
     A5A:	0E63      	subc       ah, @(+0xE, y)
     A5B:	1A27      	st         al, @(+0x1A, y)
     A5C:	1923      	st         ah, @(+0x19, y)
     A5D:	55F0      	bne        +0x55 <___libgatt_lib_db_4608+0xC5:0xAB2[p]>
     A5E:	1A1B      	ld         x, @(+0x1A, y)
     A5F:	6588      	cmp        x, #+0x65
     A60:	52F8      	bcc        +0x52 <___libgatt_lib_db_4608+0xC5:0xAB2[p]>
     A61:	DFE0      	bra        -0x21 <___libgatt_lib_db_4608+0x53:0xA40[p]>
     A62:	0100      	**prefx    0x1
     A63:	8300      	**prefx    0x83
     A64:	BF9C      	bsr        +0x82BF <TimeGet32:0x8D23[p]>
     A65:	0F27      	st         al, @(+0xF, y)
     A66:	0E23      	st         ah, @(+0xE, y)
     A67:	D9E0      	bra        -0x27 <___libgatt_lib_db_4608+0x53:0xA40[p]>
     A68:	0014      	ld         al, #+0x0
     A69:	0127      	st         al, @(+0x1, y)
     A6A:	0118      	ld         x, #+0x1
     A6B:	022B      	st         x, @(+0x2, y)
     A6C:	3400      	**prefx    0x34
     A6D:	AD19      	ld         x, @0x33AD <patch_pending_mode+0x1>
     A6E:	D200      	**prefx    0xD2
     A6F:	7D38      	add        x, #-0x2D83
     A70:	E411      	ld         ah, @0xFFE4 <register uy>
     A71:	0330      	add        ah, #+0x3
     A72:	0023      	st         ah, @(0x0, y)
     A73:	1A14      	ld         al, #+0x1A
     A74:	FE30      	add        ah, #-0x2
     A75:	FF2B      	st         x, @(-0x1, y)
     A76:	FF9F      	bsr        @(-0x1, y)
     A77:	3400      	**prefx    0x34
     A78:	AD19      	ld         x, @0x33AD <patch_pending_mode+0x1>
     A79:	D200      	**prefx    0xD2
     A7A:	7D38      	add        x, #-0x2D83
     A7B:	E411      	ld         ah, @0xFFE4 <register uy>
     A7C:	0530      	add        ah, #+0x5
     A7D:	0023      	st         ah, @(0x0, y)
     A7E:	1A14      	ld         al, #+0x1A
     A7F:	FD30      	add        ah, #-0x3
     A80:	FF2B      	st         x, @(-0x1, y)
     A81:	FF9F      	bsr        @(-0x1, y)
     A82:	0113      	ld         ah, @(+0x1, y)
     A83:	0C23      	st         ah, @(+0xC, y)
     A84:	021B      	ld         x, @(+0x2, y)
     A85:	E381      	cmp        ah, @0xFFE3 <register uxl>
     A86:	09F0      	bne        +0x9 <___libgatt_lib_db_4608+0xA2:0xA8F[p]>
     A87:	0413      	ld         ah, @(+0x4, y)
     A88:	0517      	ld         al, @(+0x5, y)
     A89:	1B27      	st         al, @(+0x1B, y)
     A8A:	0387      	cmp        al, @(+0x3, y)
     A8B:	04F0      	bne        +0x4 <___libgatt_lib_db_4608+0xA2:0xA8F[p]>
     A8C:	0617      	ld         al, @(+0x6, y)
     A8D:	E085      	cmp        al, @0xFFE0 <register ah>
     A8E:	07F4      	beq        +0x7 <___libgatt_lib_db_4608+0xA8:0xA95[p]>
     A8F:	012B      	st         x, @(+0x1, y)
     A90:	0513      	ld         ah, @(+0x5, y)
     A91:	061B      	ld         x, @(+0x6, y)
     A92:	042B      	st         x, @(+0x4, y)
     A93:	0323      	st         ah, @(+0x3, y)
     A94:	E3E0      	bra        -0x1D <___libgatt_lib_db_4608+0x8A:0xA77[p]>
     A95:	0100      	**prefx    0x1
     A96:	8300      	**prefx    0x83
     A97:	8C9C      	bsr        +0x828C <TimeGet32:0x8D23[p]>
     A98:	0800      	**prefx    0x8
     A99:	FFC0      	and        ah, #0x7FF
     A9A:	1D27      	st         al, @(+0x1D, y)
     A9B:	1C23      	st         ah, @(+0x1C, y)
     A9C:	0010      	ld         ah, #+0x0
     A9D:	0514      	ld         al, #+0x5
     A9E:	1D57      	sub        al, @(+0x1D, y)
     A9F:	1C63      	subc       ah, @(+0x1C, y)
     AA0:	F925      	st         al, @0xFFF9 <(scratchpad)>
     AA1:	F821      	st         ah, @0xFFF8 <(scratchpad)>
     AA2:	0010      	ld         ah, #+0x0
     AA3:	0C17      	ld         al, @(+0xC, y)
     AA4:	10A0      	asl        #0x10
     AA5:	1BB7      	or         al, @(+0x1B, y)
     AA6:	0800      	**prefx    0x8
     AA7:	FFC0      	and        ah, #0x7FF
     AA8:	1F27      	st         al, @(+0x1F, y)
     AA9:	1E23      	st         ah, @(+0x1E, y)
     AAA:	F915      	ld         al, @0xFFF9 <(scratchpad)>
     AAB:	F811      	ld         ah, @0xFFF8 <(scratchpad)>
     AAC:	1F37      	add        al, @(+0x1F, y)
     AAD:	1E43      	addc       ah, @(+0x1E, y)
     AAE:	E099      	tst        @0xFFE0 <register ah>
     AAF:	03F0      	bne        +0x3 <___libgatt_lib_db_4608+0xC5:0xAB2[p]>
     AB0:	7484      	cmp        al, #+0x74
     AB1:	91FC      	bcs        -0x6F <___libgatt_lib_db_4608+0x55:0xA42[p]>
     AB2:	E415      	ld         al, @0xFFE4 <register uy>
     AB3:	0734      	add        al, #+0x7
     AB4:	0400      	**prefx    0x4
     AB5:	DC9C      	bsr        +0x3DC <___libgatt_lib_db_4650:0xE91[p]>
     AB6:	3400      	**prefx    0x34
     AB7:	AD19      	ld         x, @0x33AD <patch_pending_mode+0x1>
     AB8:	D300      	**prefx    0xD3
     AB9:	C938      	add        x, #-0x2D37
     ABA:	2314      	ld         al, #+0x23
     ABB:	0010      	ld         ah, #+0x0
     ABC:	FF2B      	st         x, @(-0x1, y)
     ABD:	FF9F      	bsr        @(-0x1, y)
     ABE:	3400      	**prefx    0x34
     ABF:	AD19      	ld         x, @0x33AD <patch_pending_mode+0x1>
     AC0:	D300      	**prefx    0xD3
     AC1:	C938      	add        x, #-0x2D37
     AC2:	5F14      	ld         al, #+0x5F
     AC3:	0010      	ld         ah, #+0x0
     AC4:	FF2B      	st         x, @(-0x1, y)
     AC5:	FF9F      	bsr        @(-0x1, y)
     AC6:	1717      	ld         al, @(+0x17, y)
     AC7:	5790      	smult      #+0x57
     AC8:	0010      	ld         ah, #+0x0
     AC9:	E119      	ld         x, @0xFFE1 <register al>
     ACA:	9700      	**prefx    0x97
     ACB:	7722      	st         ah, @(-0x6889, x)
     ACC:	121B      	ld         x, @(+0x12, y)
     ACD:	4822      	st         ah, @(+0x48, x)
     ACE:	F100      	**prefx    0xF1
     ACF:	0315      	ld         al, @0xF103 <___libgatt_lib_db_1700>
     AD0:	FEF0      	bne        -0x2 <___libgatt_lib_db_4608+0xE1:0xACE[p]>
     AD1:	0010      	ld         ah, #+0x0
     AD2:	F100      	**prefx    0xF1
     AD3:	F821      	st         ah, @0xF0F8 <___libgatt_lib_db_1699>
     AD4:	3400      	**prefx    0x34
     AD5:	AD15      	ld         al, @0x33AD <patch_pending_mode+0x1>
     AD6:	0A27      	st         al, @(+0xA, y)
     AD7:	3400      	**prefx    0x34
     AD8:	AD11      	ld         ah, @0x33AD <patch_pending_mode+0x1>
     AD9:	D400      	**prefx    0xD4
     ADA:	B630      	add        ah, #-0x2C4A
     ADB:	1717      	ld         al, @(+0x17, y)
     ADC:	FF23      	st         ah, @(-0x1, y)
     ADD:	FF9F      	bsr        @(-0x1, y)
     ADE:	E111      	ld         ah, @0xFFE1 <register al>
     ADF:	0A17      	ld         al, @(+0xA, y)
     AE0:	D400      	**prefx    0xD4
     AE1:	AD34      	add        al, #-0x2C53
     AE2:	0A27      	st         al, @(+0xA, y)
     AE3:	1717      	ld         al, @(+0x17, y)
     AE4:	0A9F      	bsr        @(+0xA, y)
     AE5:	E415      	ld         al, @0xFFE4 <register uy>
     AE6:	0734      	add        al, #+0x7
     AE7:	0400      	**prefx    0x4
     AE8:	9D9C      	bsr        +0x39D <___libgatt_lib_db_4651:0xE85[p]>
     AE9:	F600      	**prefx    0xF6
     AEA:	6A19      	ld         x, @0xF66A <___libgatt_lib_db_1870>
     AEB:	0B2B      	st         x, @(+0xB, y)
     AEC:	0710      	ld         ah, #+0x7
     AED:	F800      	**prefx    0xF8
     AEE:	5621      	st         ah, @0xF856 <___libgatt_lib_db_3128>
     AEF:	4614      	ld         al, #+0x46
     AF0:	F000      	**prefx    0xF0
     AF1:	5625      	st         al, @0xF056 <___libgatt_lib_db_1695>
     AF2:	1818      	ld         x, #+0x18
     AF3:	F600      	**prefx    0xF6
     AF4:	3729      	st         x, @0xF637 <___libgatt_lib_db_1827>
     AF5:	0010      	ld         ah, #+0x0
     AF6:	F600      	**prefx    0xF6
     AF7:	6A21      	st         ah, @0xF66A <___libgatt_lib_db_1870>
     AF8:	171B      	ld         x, @(+0x17, y)
     AF9:	9700      	**prefx    0x97
     AFA:	559A      	tst        @(-0x68AB, x)
     AFB:	16F4      	beq        +0x16 <___libgatt_lib_db_4608+0x124:0xB11[p]>
     AFC:	F600      	**prefx    0xF6
     AFD:	3411      	ld         ah, @0xF634 <___libgatt_lib_db_1765>
     AFE:	0009      	**unsigned
     AFF:	0CA4      	lsr        #0xC
     B00:	E099      	tst        @0xFFE0 <register ah>
     B01:	03F4      	beq        +0x3 <___libgatt_lib_db_4608+0x117:0xB04[p]>
     B02:	0480      	cmp        ah, #+0x4
     B03:	F9F0      	bne        -0x7 <___libgatt_lib_db_4608+0x10F:0xAFC[p]>
     B04:	3400      	**prefx    0x34
     B05:	AD11      	ld         ah, @0x33AD <patch_pending_mode+0x1>
     B06:	B900      	**prefx    0xB9
     B07:	4130      	add        ah, #-0x46BF
     B08:	1717      	ld         al, @(+0x17, y)
     B09:	FF23      	st         ah, @(-0x1, y)
     B0A:	FF9F      	bsr        @(-0x1, y)
     B0B:	0434      	add        al, #+0x4
     B0C:	0040      	addc       ah, #+0x0
     B0D:	E099      	tst        @0xFFE0 <register ah>
     B0E:	03F0      	bne        +0x3 <___libgatt_lib_db_4608+0x124:0xB11[p]>
     B0F:	0F84      	cmp        al, #+0xF
     B10:	ECFC      	bcs        -0x14 <___libgatt_lib_db_4608+0x10F:0xAFC[p]>
     B11:	0B13      	ld         ah, @(+0xB, y)
     B12:	F600      	**prefx    0xF6
     B13:	6A21      	st         ah, @0xF66A <___libgatt_lib_db_1870>
     B14:	E415      	ld         al, @0xFFE4 <register uy>
     B15:	0734      	add        al, #+0x7
     B16:	0300      	**prefx    0x3
     B17:	7A9C      	bsr        +0x37A <___libgatt_lib_db_4650:0xE91[p]>
     B18:	0114      	ld         al, #+0x1
     B19:	17A3      	asl        @(+0x17, y)
     B1A:	1627      	st         al, @(+0x16, y)
     B1B:	F600      	**prefx    0xF6
     B1C:	7A25      	st         al, @0xF67A <___libgatt_lib_db_1952>
     B1D:	0014      	ld         al, #+0x0
     B1E:	F600      	**prefx    0xF6
     B1F:	7A25      	st         al, @0xF67A <___libgatt_lib_db_1952>
     B20:	179B      	tst        @(+0x17, y)
     B21:	02F0      	bne        +0x2 <___libgatt_lib_db_4608+0x136:0xB23[p]>
     B22:	0114      	ld         al, #+0x1
     B23:	F600      	**prefx    0xF6
     B24:	3C25      	st         al, @0xF63C <___libgatt_lib_db_1754>
     B25:	3400      	**prefx    0x34
     B26:	AD11      	ld         ah, @0x33AD <patch_pending_mode+0x1>
     B27:	D300      	**prefx    0xD3
     B28:	DE30      	add        ah, #-0x2D22
     B29:	6714      	ld         al, #+0x67
     B2A:	FF23      	st         ah, @(-0x1, y)
     B2B:	FF9F      	bsr        @(-0x1, y)
     B2C:	1527      	st         al, @(+0x15, y)
     B2D:	3400      	**prefx    0x34
     B2E:	AD19      	ld         x, @0x33AD <patch_pending_mode+0x1>
     B2F:	D300      	**prefx    0xD3
     B30:	C938      	add        x, #-0x2D37
     B31:	6714      	ld         al, #+0x67
     B32:	0010      	ld         ah, #+0x0
     B33:	FF2B      	st         x, @(-0x1, y)
     B34:	FF9F      	bsr        @(-0x1, y)
     B35:	0110      	ld         ah, #+0x1
     B36:	F600      	**prefx    0xF6
     B37:	6B21      	st         ah, @0xF66B <___libgatt_lib_db_1866>
     B38:	0014      	ld         al, #+0x0
     B39:	F600      	**prefx    0xF6
     B3A:	6B25      	st         al, @0xF66B <___libgatt_lib_db_1866>
     B3B:	0100      	**prefx    0x1
     B3C:	8200      	**prefx    0x82
     B3D:	E69C      	bsr        +0x81E6 <TimeGet32:0x8D23[p]>
     B3E:	1427      	st         al, @(+0x14, y)
     B3F:	1323      	st         ah, @(+0x13, y)
     B40:	18E0      	bra        +0x18 <___libgatt_lib_db_4608+0x16B:0xB58[p]>
     B41:	0100      	**prefx    0x1
     B42:	8200      	**prefx    0x82
     B43:	E09C      	bsr        +0x81E0 <TimeGet32:0x8D23[p]>
     B44:	1127      	st         al, @(+0x11, y)
     B45:	1023      	st         ah, @(+0x10, y)
     B46:	1117      	ld         al, @(+0x11, y)
     B47:	1013      	ld         ah, @(+0x10, y)
     B48:	1457      	sub        al, @(+0x14, y)
     B49:	1363      	subc       ah, @(+0x13, y)
     B4A:	E099      	tst        @0xFFE0 <register ah>
     B4B:	03F0      	bne        +0x3 <___libgatt_lib_db_4608+0x161:0xB4E[p]>
     B4C:	6584      	cmp        al, #+0x65
     B4D:	0BFC      	bcs        +0xB <___libgatt_lib_db_4608+0x16B:0xB58[p]>
     B4E:	0318      	ld         x, #+0x3
     B4F:	F100      	**prefx    0xF1
     B50:	F829      	st         x, @0xF0F8 <___libgatt_lib_db_1699>
     B51:	0010      	ld         ah, #+0x0
     B52:	F100      	**prefx    0xF1
     B53:	F821      	st         ah, @0xF0F8 <___libgatt_lib_db_1699>
     B54:	111B      	ld         x, @(+0x11, y)
     B55:	142B      	st         x, @(+0x14, y)
     B56:	1017      	ld         al, @(+0x10, y)
     B57:	1327      	st         al, @(+0x13, y)
     B58:	F600      	**prefx    0xF6
     B59:	2315      	ld         al, @0xF623 <___libgatt_lib_db_1980>
     B5A:	02C4      	and        al, #0x2
     B5B:	E6F0      	bne        -0x1A <___libgatt_lib_db_4608+0x154:0xB41[p]>
     B5C:	F100      	**prefx    0xF1
     B5D:	0315      	ld         al, @0xF103 <___libgatt_lib_db_1700>
     B5E:	E3F0      	bne        -0x1D <___libgatt_lib_db_4608+0x154:0xB41[p]>
     B5F:	161B      	ld         x, @(+0x16, y)
     B60:	F600      	**prefx    0xF6
     B61:	7A29      	st         x, @0xF67A <___libgatt_lib_db_1952>
     B62:	0010      	ld         ah, #+0x0
     B63:	F600      	**prefx    0xF6
     B64:	7A21      	st         ah, @0xF67A <___libgatt_lib_db_1952>
     B65:	0314      	ld         al, #+0x3
     B66:	F100      	**prefx    0xF1
     B67:	F825      	st         al, @0xF0F8 <___libgatt_lib_db_1699>
     B68:	3400      	**prefx    0x34
     B69:	AD19      	ld         x, @0x33AD <patch_pending_mode+0x1>
     B6A:	D300      	**prefx    0xD3
     B6B:	C938      	add        x, #-0x2D37
     B6C:	6714      	ld         al, #+0x67
     B6D:	1513      	ld         ah, @(+0x15, y)
     B6E:	FF2B      	st         x, @(-0x1, y)
     B6F:	FF9F      	bsr        @(-0x1, y)
     B70:	210F      	leave      #+0x21

0x00000B71 <___libgatt_lib_db_4544>:
     B71:	030B      	enter      #+0x3
     B72:	0717      	ld         al, @(+0x7, y)
     B73:	0127      	st         al, @(+0x1, y)
     B74:	0217      	ld         al, @(+0x2, y)
     B75:	BD00      	**prefx    0xBD
     B76:	C084      	cmp        al, #-0x4340
     B77:	1FF0      	bne        +0x1F <___libgatt_lib_db_4544+0x25:0xB96[p]>
     B78:	3400      	**prefx    0x34
     B79:	AD19      	ld         x, @0x33AD <patch_pending_mode+0x1>
     B7A:	E500      	**prefx    0xE5
     B7B:	BE38      	add        x, #-0x1B42
     B7C:	0A00      	**prefx    0xA
     B7D:	BD14      	ld         al, #+0x9BD
     B7E:	0027      	st         al, @(0x0, y)
     B7F:	0B14      	ld         al, #+0xB
     B80:	0210      	ld         ah, #+0x2
     B81:	FF2B      	st         x, @(-0x1, y)
     B82:	FF9F      	bsr        @(-0x1, y)
     B83:	3400      	**prefx    0x34
     B84:	AD19      	ld         x, @0x33AD <patch_pending_mode+0x1>
     B85:	E500      	**prefx    0xE5
     B86:	BE38      	add        x, #-0x1B42
     B87:	0A00      	**prefx    0xA
     B88:	9E14      	ld         al, #+0x99E
     B89:	0027      	st         al, @(0x0, y)
     B8A:	0C14      	ld         al, #+0xC
     B8B:	0210      	ld         ah, #+0x2
     B8C:	FF2B      	st         x, @(-0x1, y)
     B8D:	FF9F      	bsr        @(-0x1, y)
     B8E:	0117      	ld         al, @(+0x1, y)
     B8F:	E411      	ld         ah, @0xFFE4 <register uy>
     B90:	0430      	add        ah, #+0x4
     B91:	FE00      	**prefx    0xFE
     B92:	5B9C      	bsr        -0x1A5 <___libgatt_lib_db_4608:0x9ED[p]>
     B93:	BD00      	**prefx    0xBD
     B94:	4914      	ld         al, #-0x42B7
     B95:	0227      	st         al, @(+0x2, y)
     B96:	030F      	leave      #+0x3

0x00000B97 <___libgatt_lib_db_4615>:
     B97:	0C0B      	enter      #+0xC
     B98:	3513      	ld         ah, @(+0x35, y)
     B99:	0923      	st         ah, @(+0x9, y)
     B9A:	3417      	ld         al, @(+0x34, y)
     B9B:	0A27      	st         al, @(+0xA, y)
     B9C:	381B      	ld         x, @(+0x38, y)
     B9D:	082B      	st         x, @(+0x8, y)
     B9E:	E315      	ld         al, @0xFFE3 <register uxl>
     B9F:	5790      	smult      #+0x57
     BA0:	9700      	**prefx    0x97
     BA1:	6B34      	add        al, #-0x6895
     BA2:	0727      	st         al, @(+0x7, y)
     BA3:	E119      	ld         x, @0xFFE1 <register al>
     BA4:	0C16      	ld         al, @(+0xC, x)
     BA5:	0684      	cmp        al, #+0x6
     BA6:	0100      	**prefx    0x1
     BA7:	A4F0      	bne        +0xA4 <___libgatt_lib_db_4615+0xB4:0xC4B[p]>
     BA8:	099B      	tst        @(+0x9, y)
     BA9:	06F0      	bne        +0x6 <___libgatt_lib_db_4615+0x18:0xBAF[p]>
     BAA:	0A1B      	ld         x, @(+0xA, y)
     BAB:	0A16      	ld         al, @(+0xA, x)
     BAC:	08A0      	asl        #0x8
     BAD:	09B6      	or         al, @(+0x9, x)
     BAE:	09E0      	bra        +0x9 <___libgatt_lib_db_4615+0x20:0xBB7[p]>
     BAF:	0913      	ld         ah, @(+0x9, y)
     BB0:	0180      	cmp        ah, #+0x1
     BB1:	0100      	**prefx    0x1
     BB2:	99F0      	bne        +0x99 <___libgatt_lib_db_4615+0xB4:0xC4B[p]>
     BB3:	0A1B      	ld         x, @(+0xA, y)
     BB4:	0616      	ld         al, @(+0x6, x)
     BB5:	08A0      	asl        #0x8
     BB6:	05B6      	or         al, @(+0x5, x)
     BB7:	0627      	st         al, @(+0x6, y)
     BB8:	3B14      	ld         al, #+0x3B
     BB9:	0300      	**prefx    0x3
     BBA:	B59C      	bsr        +0x2B5 <___libgatt_lib_db_4638:0xE6F[p]>
     BBB:	0613      	ld         ah, @(+0x6, y)
     BBC:	E151      	sub        ah, @0xFFE1 <register al>
     BBD:	8000      	**prefx    0x80
     BBE:	0080      	cmp        ah, #-0x8000
     BBF:	0A2C      	bcz        +0xA <___libgatt_lib_db_4615+0x32:0xBC9[p]>
     BC0:	3400      	**prefx    0x34
     BC1:	AD19      	ld         x, @0x33AD <patch_pending_mode+0x1>
     BC2:	BE00      	**prefx    0xBE
     BC3:	FC38      	add        x, #-0x4204
     BC4:	0817      	ld         al, @(+0x8, y)
     BC5:	0010      	ld         ah, #+0x0
     BC6:	FF2B      	st         x, @(-0x1, y)
     BC7:	FF9F      	bsr        @(-0x1, y)
     BC8:	3E0F      	leave      #+0x3E
     BC9:	099B      	tst        @(+0x9, y)
     BCA:	3FF0      	bne        +0x3F <___libgatt_lib_db_4615+0x72:0xC09[p]>
     BCB:	0010      	ld         ah, #+0x0
     BCC:	0023      	st         ah, @(0x0, y)
     BCD:	0123      	st         ah, @(+0x1, y)
     BCE:	3C14      	ld         al, #+0x3C
     BCF:	0A1B      	ld         x, @(+0xA, y)
     BD0:	0012      	ld         ah, @(0x0, x)
     BD1:	0200      	**prefx    0x2
     BD2:	329C      	bsr        +0x232 <___libgatt_lib_db_4642:0xE04[p]>
     BD3:	0A1B      	ld         x, @(+0xA, y)
     BD4:	0216      	ld         al, @(+0x2, x)
     BD5:	08A0      	asl        #0x8
     BD6:	E111      	ld         ah, @0xFFE1 <register al>
     BD7:	01B2      	or         ah, @(+0x1, x)
     BD8:	0014      	ld         al, #+0x0
     BD9:	0027      	st         al, @(0x0, y)
     BDA:	0127      	st         al, @(+0x1, y)
     BDB:	3D14      	ld         al, #+0x3D
     BDC:	0200      	**prefx    0x2
     BDD:	279C      	bsr        +0x227 <___libgatt_lib_db_4642:0xE04[p]>
     BDE:	0A1B      	ld         x, @(+0xA, y)
     BDF:	0416      	ld         al, @(+0x4, x)
     BE0:	08A0      	asl        #0x8
     BE1:	E111      	ld         ah, @0xFFE1 <register al>
     BE2:	03B2      	or         ah, @(+0x3, x)
     BE3:	0014      	ld         al, #+0x0
     BE4:	0027      	st         al, @(0x0, y)
     BE5:	0127      	st         al, @(+0x1, y)
     BE6:	3014      	ld         al, #+0x30
     BE7:	0200      	**prefx    0x2
     BE8:	1C9C      	bsr        +0x21C <___libgatt_lib_db_4642:0xE04[p]>
     BE9:	0A1B      	ld         x, @(+0xA, y)
     BEA:	0616      	ld         al, @(+0x6, x)
     BEB:	08A0      	asl        #0x8
     BEC:	E111      	ld         ah, @0xFFE1 <register al>
     BED:	05B2      	or         ah, @(+0x5, x)
     BEE:	0014      	ld         al, #+0x0
     BEF:	0027      	st         al, @(0x0, y)
     BF0:	0127      	st         al, @(+0x1, y)
     BF1:	3214      	ld         al, #+0x32
     BF2:	0200      	**prefx    0x2
     BF3:	119C      	bsr        +0x211 <___libgatt_lib_db_4642:0xE04[p]>
     BF4:	0A1B      	ld         x, @(+0xA, y)
     BF5:	0816      	ld         al, @(+0x8, x)
     BF6:	08A0      	asl        #0x8
     BF7:	E111      	ld         ah, @0xFFE1 <register al>
     BF8:	07B2      	or         ah, @(+0x7, x)
     BF9:	0014      	ld         al, #+0x0
     BFA:	0027      	st         al, @(0x0, y)
     BFB:	0127      	st         al, @(+0x1, y)
     BFC:	3114      	ld         al, #+0x31
     BFD:	0200      	**prefx    0x2
     BFE:	069C      	bsr        +0x206 <___libgatt_lib_db_4642:0xE04[p]>
     BFF:	0018      	ld         x, #+0x0
     C00:	002B      	st         x, @(0x0, y)
     C01:	012B      	st         x, @(+0x1, y)
     C02:	2E14      	ld         al, #+0x2E
     C03:	0613      	ld         ah, @(+0x6, y)
     C04:	0200      	**prefx    0x2
     C05:	FF9C      	bsr        +0x1FF <___libgatt_lib_db_4642:0xE04[p]>
     C06:	0810      	ld         ah, #+0x8
     C07:	0523      	st         ah, @(+0x5, y)
     C08:	1CE0      	bra        +0x1C <___libgatt_lib_db_4615+0x8D:0xC24[p]>
     C09:	0514      	ld         al, #+0x5
     C0A:	0027      	st         al, @(0x0, y)
     C0B:	E415      	ld         al, @0xFFE4 <register uy>
     C0C:	0234      	add        al, #+0x2
     C0D:	0A13      	ld         ah, @(+0xA, y)
     C0E:	0100      	**prefx    0x1
     C0F:	8100      	**prefx    0x81
     C10:	A69C      	bsr        +0x80A6 <MemCopyPack:0x8CB6[p]>
     C11:	0417      	ld         al, @(+0x4, y)
     C12:	1FC4      	and        al, #0x1F
     C13:	0427      	st         al, @(+0x4, y)
     C14:	031B      	ld         x, @(+0x3, y)
     C15:	002B      	st         x, @(0x0, y)
     C16:	0127      	st         al, @(+0x1, y)
     C17:	1514      	ld         al, #+0x15
     C18:	0213      	ld         ah, @(+0x2, y)
     C19:	0200      	**prefx    0x2
     C1A:	EA9C      	bsr        +0x1EA <___libgatt_lib_db_4642:0xE04[p]>
     C1B:	0010      	ld         ah, #+0x0
     C1C:	0023      	st         ah, @(0x0, y)
     C1D:	0123      	st         ah, @(+0x1, y)
     C1E:	2F14      	ld         al, #+0x2F
     C1F:	0613      	ld         ah, @(+0x6, y)
     C20:	0200      	**prefx    0x2
     C21:	E39C      	bsr        +0x1E3 <___libgatt_lib_db_4642:0xE04[p]>
     C22:	1014      	ld         al, #+0x10
     C23:	0527      	st         al, @(+0x5, y)
     C24:	5F14      	ld         al, #+0x5F
     C25:	0200      	**prefx    0x2
     C26:	499C      	bsr        +0x249 <___libgatt_lib_db_4638:0xE6F[p]>
     C27:	05B7      	or         al, @(+0x5, y)
     C28:	0527      	st         al, @(+0x5, y)
     C29:	0018      	ld         x, #+0x0
     C2A:	002B      	st         x, @(0x0, y)
     C2B:	012B      	st         x, @(+0x1, y)
     C2C:	5F14      	ld         al, #+0x5F
     C2D:	0513      	ld         ah, @(+0x5, y)
     C2E:	0200      	**prefx    0x2
     C2F:	D59C      	bsr        +0x1D5 <___libgatt_lib_db_4642:0xE04[p]>
     C30:	3E14      	ld         al, #+0x3E
     C31:	0200      	**prefx    0x2
     C32:	2C9C      	bsr        +0x22C <___libgatt_lib_db_4639:0xE5E[p]>
     C33:	FA21      	st         ah, @0xFFFA <(scratchpad)>
     C34:	E119      	ld         x, @0xFFE1 <register al>
     C35:	0114      	ld         al, #+0x1
     C36:	09A3      	asl        @(+0x9, y)
     C37:	E111      	ld         ah, @0xFFE1 <register al>
     C38:	10A4      	asr        #0x10
     C39:	F925      	st         al, @0xFFF9 <(scratchpad)>
     C3A:	F821      	st         ah, @0xFFF8 <(scratchpad)>
     C3B:	E315      	ld         al, @0xFFE3 <register uxl>
     C3C:	F9B5      	or         al, @0xFFF9 <(scratchpad)>
     C3D:	FA11      	ld         ah, @0xFFFA <(scratchpad)>
     C3E:	F8B1      	or         ah, @0xFFF8 <(scratchpad)>
     C3F:	E119      	ld         x, @0xFFE1 <register al>
     C40:	0023      	st         ah, @(0x0, y)
     C41:	0014      	ld         al, #+0x0
     C42:	0127      	st         al, @(+0x1, y)
     C43:	3E14      	ld         al, #+0x3E
     C44:	E311      	ld         ah, @0xFFE3 <register uxl>
     C45:	0200      	**prefx    0x2
     C46:	BE9C      	bsr        +0x1BE <___libgatt_lib_db_4642:0xE04[p]>
     C47:	0913      	ld         ah, @(+0x9, y)
     C48:	071B      	ld         x, @(+0x7, y)
     C49:	4B22      	st         ah, @(+0x4B, x)
     C4A:	3E0F      	leave      #+0x3E
     C4B:	0C0F      	leave      #+0xC

0x00000C4C <___libgatt_lib_db_4626>:
     C4C:	020B      	enter      #+0x2
     C4D:	0617      	ld         al, @(+0x6, y)
     C4E:	0027      	st         al, @(0x0, y)
     C4F:	E119      	ld         x, @0xFFE1 <register al>
     C50:	0016      	ld         al, @(0x0, x)
     C51:	0C84      	cmp        al, #+0xC
     C52:	05F0      	bne        +0x5 <___libgatt_lib_db_4626+0xB:0xC57[p]>
     C53:	F800      	**prefx    0xF8
     C54:	C59C      	bsr        -0x83B <IdGetLlVerBtle:0x419[p]>
     C55:	001B      	ld         x, @(0x0, y)
     C56:	0126      	st         al, @(+0x1, x)
     C57:	020F      	leave      #+0x2

0x00000C58 <___libgatt_lib_db_4625>:
     C58:	020B      	enter      #+0x2
     C59:	0027      	st         al, @(0x0, y)
     C5A:	0100      	**prefx    0x1
     C5B:	C700      	**prefx    0xC7
     C5C:	689C      	bsr        +0xC768 <___libgatt_lib_db_4148:0xD3C4[p]>
     C5D:	E111      	ld         ah, @0xFFE1 <register al>
     C5E:	3400      	**prefx    0x34
     C5F:	AA31      	add        ah, @0x33AA <patch_pending>
     C60:	7FC0      	and        ah, #0x7F
     C61:	0017      	ld         al, @(0x0, y)
     C62:	0100      	**prefx    0x1
     C63:	C700      	**prefx    0xC7
     C64:	679C      	bsr        +0xC767 <___libgatt_lib_db_4152:0xD3CB[p]>
     C65:	0014      	ld         al, #+0x0
     C66:	3400      	**prefx    0x34
     C67:	AA25      	st         al, @0x33AA <patch_pending>
     C68:	020F      	leave      #+0x2

0x00000C69 <___libgatt_lib_db_4627>:
     C69:	1C0B      	enter      #+0x1C
     C6A:	2E13      	ld         ah, @(+0x2E, y)
     C6B:	1323      	st         ah, @(+0x13, y)
     C6C:	2D17      	ld         al, @(+0x2D, y)
     C6D:	1927      	st         al, @(+0x19, y)
     C6E:	E015      	ld         al, @0xFFE0 <register ah>
     C6F:	5790      	smult      #+0x57
     C70:	1A27      	st         al, @(+0x1A, y)
     C71:	9700      	**prefx    0x97
     C72:	6B34      	add        al, #-0x6895
     C73:	0D27      	st         al, @(+0xD, y)
     C74:	3400      	**prefx    0x34
     C75:	AA99      	tst        @0x33AA <patch_pending>
     C76:	0100      	**prefx    0x1
     C77:	9BF0      	bne        +0x9B <___libgatt_lib_db_4627+0xA9:0xD12[p]>
     C78:	1913      	ld         ah, @(+0x19, y)
     C79:	0130      	add        ah, #+0x1
     C7A:	1223      	st         ah, @(+0x12, y)
     C7B:	191B      	ld         x, @(+0x19, y)
     C7C:	0112      	ld         ah, @(+0x1, x)
     C7D:	0009      	**unsigned
     C7E:	08A4      	lsr        #0x8
     C7F:	1FC0      	and        ah, #0x1F
     C80:	1123      	st         ah, @(+0x11, y)
     C81:	0230      	add        ah, #+0x2
     C82:	0A23      	st         ah, @(+0xA, y)
     C83:	1A1B      	ld         x, @(+0x1A, y)
     C84:	9700      	**prefx    0x97
     C85:	7716      	ld         al, @(-0x6889, x)
     C86:	0484      	cmp        al, #+0x4
     C87:	03FC      	bcs        +0x3 <___libgatt_lib_db_4627+0x21:0xC8A[p]>
     C88:	1113      	ld         ah, @(+0x11, y)
     C89:	0630      	add        ah, #+0x6
     C8A:	1023      	st         ah, @(+0x10, y)
     C8B:	1317      	ld         al, @(+0x13, y)
     C8C:	0100      	**prefx    0x1
     C8D:	C700      	**prefx    0xC7
     C8E:	2F9C      	bsr        +0xC72F <___libgatt_lib_db_4149:0xD3BD[p]>
     C8F:	1827      	st         al, @(+0x18, y)
     C90:	1317      	ld         al, @(+0x13, y)
     C91:	0100      	**prefx    0x1
     C92:	C700      	**prefx    0xC7
     C93:	319C      	bsr        +0xC731 <___libgatt_lib_db_4148:0xD3C4[p]>
     C94:	181B      	ld         x, @(+0x18, y)
     C95:	E159      	sub        x, @0xFFE1 <register al>
     C96:	E311      	ld         ah, @0xFFE3 <register uxl>
     C97:	FF30      	add        ah, #-0x1
     C98:	03E8      	bpl        +0x3 <___libgatt_lib_db_4627+0x32:0xC9B[p]>
     C99:	0100      	**prefx    0x1
     C9A:	8030      	add        ah, #+0x80
     C9B:	1083      	cmp        ah, @(+0x10, y)
     C9C:	76E4      	blt        +0x76 <___libgatt_lib_db_4627+0xA9:0xD12[p]>
     C9D:	7F80      	cmp        ah, #+0x7F
     C9E:	48F0      	bne        +0x48 <___libgatt_lib_db_4627+0x7D:0xCE6[p]>
     C9F:	9700      	**prefx    0x97
     CA0:	5799      	tst        @0x9757 <le_device+0x2>
     CA1:	45F0      	bne        +0x45 <___libgatt_lib_db_4627+0x7D:0xCE6[p]>
     CA2:	0D1B      	ld         x, @(+0xD, y)
     CA3:	129A      	tst        @(+0x12, x)
     CA4:	42F4      	beq        +0x42 <___libgatt_lib_db_4627+0x7D:0xCE6[p]>
     CA5:	1317      	ld         al, @(+0x13, y)
     CA6:	E411      	ld         ah, @0xFFE4 <register uy>
     CA7:	0230      	add        ah, #+0x2
     CA8:	0100      	**prefx    0x1
     CA9:	C500      	**prefx    0xC5
     CAA:	749C      	bsr        +0xC574 <___libgatt_lib_db_4118:0xD21E[p]>
     CAB:	2514      	ld         al, #+0x25
     CAC:	0200      	**prefx    0x2
     CAD:	C29C      	bsr        +0x1C2 <___libgatt_lib_db_4638:0xE6F[p]>
     CAE:	0C27      	st         al, @(+0xC, y)
     CAF:	E411      	ld         ah, @0xFFE4 <register uy>
     CB0:	0630      	add        ah, #+0x6
     CB1:	0023      	st         ah, @(0x0, y)
     CB2:	3414      	ld         al, #+0x34
     CB3:	FD30      	add        ah, #-0x3
     CB4:	0200      	**prefx    0x2
     CB5:	989C      	bsr        +0x198 <___libgatt_lib_db_4641:0xE4D[p]>
     CB6:	0717      	ld         al, @(+0x7, y)
     CB7:	1727      	st         al, @(+0x17, y)
     CB8:	061B      	ld         x, @(+0x6, y)
     CB9:	162B      	st         x, @(+0x16, y)
     CBA:	0100      	**prefx    0x1
     CBB:	8000      	**prefx    0x80
     CBC:	679C      	bsr        +0x8067 <TimeGet32:0x8D23[p]>
     CBD:	1527      	st         al, @(+0x15, y)
     CBE:	1423      	st         ah, @(+0x14, y)
     CBF:	E415      	ld         al, @0xFFE4 <register uy>
     CC0:	0234      	add        al, #+0x2
     CC1:	0100      	**prefx    0x1
     CC2:	C500      	**prefx    0xC5
     CC3:	639C      	bsr        +0xC563 <___libgatt_lib_db_4123:0xD226[p]>
     CC4:	0C13      	ld         ah, @(+0xC, y)
     CC5:	0100      	**prefx    0x1
     CC6:	CA80      	cmp        ah, #+0xCA
     CC7:	1FF0      	bne        +0x1F <___libgatt_lib_db_4627+0x7D:0xCE6[p]>
     CC8:	A000      	**prefx    0xA0
     CC9:	C011      	ld         ah, @0x9FC0 <DATA_CSTORE_START+0x3C>
     CCA:	10A4      	asr        #0x10
     CCB:	F925      	st         al, @0xFFF9 <(scratchpad)>
     CCC:	F821      	st         ah, @0xFFF8 <(scratchpad)>
     CCD:	1717      	ld         al, @(+0x17, y)
     CCE:	1613      	ld         ah, @(+0x16, y)
     CCF:	1557      	sub        al, @(+0x15, y)
     CD0:	1463      	subc       ah, @(+0x14, y)
     CD1:	F819      	ld         x, @0xFFF8 <(scratchpad)>
     CD2:	E089      	cmp        x, @0xFFE0 <register ah>
     CD3:	0620      	bgt        +0x6 <___libgatt_lib_db_4627+0x70:0xCD9[p]>
     CD4:	E089      	cmp        x, @0xFFE0 <register ah>
     CD5:	11F0      	bne        +0x11 <___libgatt_lib_db_4627+0x7D:0xCE6[p]>
     CD6:	F919      	ld         x, @0xFFF9 <(scratchpad)>
     CD7:	E189      	cmp        x, @0xFFE1 <register al>
     CD8:	0E2C      	bcz        +0xE <___libgatt_lib_db_4627+0x7D:0xCE6[p]>
     CD9:	F600      	**prefx    0xF6
     CDA:	3D15      	ld         al, @0xF63D <___libgatt_lib_db_1819>
     CDB:	1000      	**prefx    0x10
     CDC:	00B4      	or         al, #+0x1000
     CDD:	F600      	**prefx    0xF6
     CDE:	3D25      	st         al, @0xF63D <___libgatt_lib_db_1819>
     CDF:	0410      	ld         ah, #+0x4
     CE0:	2823      	st         ah, @(+0x28, y)
     CE1:	C900      	**prefx    0xC9
     CE2:	0814      	ld         al, #-0x36F8
     CE3:	1B27      	st         al, @(+0x1B, y)
     CE4:	0100      	**prefx    0x1
     CE5:	A9E0      	bra        +0xA9 <___libgatt_lib_db_4627+0x125:0xD8E[p]>
     CE6:	121B      	ld         x, @(+0x12, y)
     CE7:	009A      	tst        @(0x0, x)
     CE8:	38E8      	bpl        +0x38 <___libgatt_lib_db_4627+0xB7:0xD20[p]>
     CE9:	3400      	**prefx    0x34
     CEA:	0419      	ld         x, @0x3404 <___libgatt_lib_db_4628>
     CEB:	0010      	ld         ah, #+0x0
     CEC:	0B23      	st         ah, @(+0xB, y)
     CED:	0B17      	ld         al, @(+0xB, y)
     CEE:	0390      	smult      #+0x3
     CEF:	F825      	st         al, @0xFFF8 <(scratchpad)>
     CF0:	0016      	ld         al, @(0x0, x)
     CF1:	0284      	cmp        al, #+0x2
     CF2:	1AF0      	bne        +0x1A <___libgatt_lib_db_4627+0xA3:0xD0C[p]>
     CF3:	1313      	ld         ah, @(+0x13, y)
     CF4:	0022      	st         ah, @(0x0, x)
     CF5:	3400      	**prefx    0x34
     CF6:	0411      	ld         ah, @0x3404 <___libgatt_lib_db_4628>
     CF7:	F831      	add        ah, @0xFFF8 <(scratchpad)>
     CF8:	121B      	ld         x, @(+0x12, y)
     CF9:	0116      	ld         al, @(+0x1, x)
     CFA:	0100      	**prefx    0x1
     CFB:	FFC4      	and        al, #0xFF
     CFC:	E019      	ld         x, @0xFFE0 <register ah>
     CFD:	0126      	st         al, @(+0x1, x)
     CFE:	3400      	**prefx    0x34
     CFF:	0419      	ld         x, @0x3404 <___libgatt_lib_db_4628>
     D00:	F839      	add        x, @0xFFF8 <(scratchpad)>
     D01:	092B      	st         x, @(+0x9, y)
     D02:	1317      	ld         al, @(+0x13, y)
     D03:	0100      	**prefx    0x1
     D04:	C700      	**prefx    0xC7
     D05:	BF9C      	bsr        +0xC6BF <___libgatt_lib_db_4148:0xD3C4[p]>
     D06:	091B      	ld         x, @(+0x9, y)
     D07:	0226      	st         al, @(+0x2, x)
     D08:	0B13      	ld         ah, @(+0xB, y)
     D09:	0480      	cmp        ah, #+0x4
     D0A:	11FC      	bcs        +0x11 <___libgatt_lib_db_4627+0xB2:0xD1B[p]>
     D0B:	07E0      	bra        +0x7 <___libgatt_lib_db_4627+0xA9:0xD12[p]>
     D0C:	0B17      	ld         al, @(+0xB, y)
     D0D:	0134      	add        al, #+0x1
     D0E:	0B27      	st         al, @(+0xB, y)
     D0F:	0338      	add        x, #+0x3
     D10:	0484      	cmp        al, #+0x4
     D11:	DCF0      	bne        -0x24 <___libgatt_lib_db_4627+0x84:0xCED[p]>
     D12:	0110      	ld         ah, #+0x1
     D13:	1A1B      	ld         x, @(+0x1A, y)
     D14:	9800      	**prefx    0x98
     D15:	B222      	st         ah, @(-0x684E, x)
     D16:	0414      	ld         al, #+0x4
     D17:	2827      	st         al, @(+0x28, y)
     D18:	C900      	**prefx    0xC9
     D19:	0818      	ld         x, #-0x36F8
     D1A:	73E0      	bra        +0x73 <___libgatt_lib_db_4627+0x124:0xD8D[p]>
     D1B:	191B      	ld         x, @(+0x19, y)
     D1C:	0112      	ld         ah, @(+0x1, x)
     D1D:	8000      	**prefx    0x80
     D1E:	FFC0      	and        ah, #0x7FFF
     D1F:	0122      	st         ah, @(+0x1, x)
     D20:	191B      	ld         x, @(+0x19, y)
     D21:	0112      	ld         ah, @(+0x1, x)
     D22:	03C0      	and        ah, #0x3
     D23:	0E23      	st         ah, @(+0xE, y)
     D24:	2823      	st         ah, @(+0x28, y)
     D25:	E415      	ld         al, @0xFFE4 <register uy>
     D26:	0434      	add        al, #+0x4
     D27:	0100      	**prefx    0x1
     D28:	A800      	**prefx    0xA8
     D29:	6E9C      	bsr        +0xA86E <___libgatt_lib_db_3944:0xB597[p]>
     D2A:	1317      	ld         al, @(+0x13, y)
     D2B:	0100      	**prefx    0x1
     D2C:	C700      	**prefx    0xC7
     D2D:	CD9C      	bsr        +0xC6CD <___libgatt_lib_db_4150:0xD3FA[p]>
     D2E:	0100      	**prefx    0x1
     D2F:	A900      	**prefx    0xA9
     D30:	899C      	bsr        +0xA889 <___libgatt_lib_db_3947:0xB5B9[p]>
     D31:	0F27      	st         al, @(+0xF, y)
     D32:	1317      	ld         al, @(+0x13, y)
     D33:	0100      	**prefx    0x1
     D34:	C700      	**prefx    0xC7
     D35:	8F9C      	bsr        +0xC68F <___libgatt_lib_db_4148:0xD3C4[p]>
     D36:	0F37      	add        al, @(+0xF, y)
     D37:	0827      	st         al, @(+0x8, y)
     D38:	0A17      	ld         al, @(+0xA, y)
     D39:	0027      	st         al, @(0x0, y)
     D3A:	0817      	ld         al, @(+0x8, y)
     D3B:	1213      	ld         ah, @(+0x12, y)
     D3C:	0100      	**prefx    0x1
     D3D:	8000      	**prefx    0x80
     D3E:	A29C      	bsr        +0x7FA2 <MemCopyUnPack:0x8CE0[p]>
     D3F:	1A1B      	ld         x, @(+0x1A, y)
     D40:	9700      	**prefx    0x97
     D41:	7716      	ld         al, @(-0x6889, x)
     D42:	0384      	cmp        al, #+0x3
     D43:	0E2C      	bcz        +0xE <___libgatt_lib_db_4627+0xE8:0xD51[p]>
     D44:	0E13      	ld         ah, @(+0xE, y)
     D45:	0023      	st         ah, @(0x0, y)
     D46:	0014      	ld         al, #+0x0
     D47:	0127      	st         al, @(+0x1, y)
     D48:	1317      	ld         al, @(+0x13, y)
     D49:	1113      	ld         ah, @(+0x11, y)
     D4A:	0100      	**prefx    0x1
     D4B:	D900      	**prefx    0xD9
     D4C:	629C      	bsr        +0xD962 <___libgatt_lib_db_4316:0xE6AE[p]>
     D4D:	081B      	ld         x, @(+0x8, y)
     D4E:	0116      	ld         al, @(+0x1, x)
     D4F:	0434      	add        al, #+0x4
     D50:	0126      	st         al, @(+0x1, x)
     D51:	E415      	ld         al, @0xFFE4 <register uy>
     D52:	0434      	add        al, #+0x4
     D53:	0100      	**prefx    0x1
     D54:	A800      	**prefx    0xA8
     D55:	4B9C      	bsr        +0xA84B <___libgatt_lib_db_3945:0xB5A0[p]>
     D56:	3400      	**prefx    0x34
     D57:	AC99      	tst        @0x33AC <patch_pending_mode>
     D58:	08F4      	beq        +0x8 <___libgatt_lib_db_4627+0xF7:0xD60[p]>
     D59:	0E13      	ld         ah, @(+0xE, y)
     D5A:	0380      	cmp        ah, #+0x3
     D5B:	05F4      	beq        +0x5 <___libgatt_lib_db_4627+0xF7:0xD60[p]>
     D5C:	1017      	ld         al, @(+0x10, y)
     D5D:	3400      	**prefx    0x34
     D5E:	AA25      	st         al, @0x33AA <patch_pending>
     D5F:	2CE0      	bra        +0x2C <___libgatt_lib_db_4627+0x122:0xD8B[p]>
     D60:	1317      	ld         al, @(+0x13, y)
     D61:	0100      	**prefx    0x1
     D62:	C600      	**prefx    0xC6
     D63:	619C      	bsr        +0xC661 <___libgatt_lib_db_4148:0xD3C4[p]>
     D64:	E111      	ld         ah, @0xFFE1 <register al>
     D65:	1033      	add        ah, @(+0x10, y)
     D66:	7FC0      	and        ah, #0x7F
     D67:	1317      	ld         al, @(+0x13, y)
     D68:	0100      	**prefx    0x1
     D69:	C600      	**prefx    0xC6
     D6A:	619C      	bsr        +0xC661 <___libgatt_lib_db_4152:0xD3CB[p]>
     D6B:	9700      	**prefx    0x97
     D6C:	5799      	tst        @0x9757 <le_device+0x2>
     D6D:	1EF4      	beq        +0x1E <___libgatt_lib_db_4627+0x122:0xD8B[p]>
     D6E:	1317      	ld         al, @(+0x13, y)
     D6F:	E411      	ld         ah, @0xFFE4 <register uy>
     D70:	0230      	add        ah, #+0x2
     D71:	0100      	**prefx    0x1
     D72:	C500      	**prefx    0xC5
     D73:	AB9C      	bsr        +0xC4AB <___libgatt_lib_db_4118:0xD21E[p]>
     D74:	E419      	ld         x, @0xFFE4 <register uy>
     D75:	0638      	add        x, #+0x6
     D76:	002B      	st         x, @(0x0, y)
     D77:	3814      	ld         al, #+0x38
     D78:	E411      	ld         ah, @0xFFE4 <register uy>
     D79:	0330      	add        ah, #+0x3
     D7A:	0100      	**prefx    0x1
     D7B:	C500      	**prefx    0xC5
     D7C:	019C      	bsr        +0xC501 <___libgatt_lib_db_4122:0xD27D[p]>
     D7D:	E415      	ld         al, @0xFFE4 <register uy>
     D7E:	0234      	add        al, #+0x2
     D7F:	0100      	**prefx    0x1
     D80:	C500      	**prefx    0xC5
     D81:	A59C      	bsr        +0xC4A5 <___libgatt_lib_db_4123:0xD226[p]>
     D82:	0613      	ld         ah, @(+0x6, y)
     D83:	0717      	ld         al, @(+0x7, y)
     D84:	0127      	st         al, @(+0x1, y)
     D85:	0023      	st         ah, @(0x0, y)
     D86:	3400      	**prefx    0x34
     D87:	B814      	ld         al, #+0x33B8
     D88:	0313      	ld         ah, @(+0x3, y)
     D89:	F900      	**prefx    0xF9
     D8A:	729C      	bsr        -0x68E <___libgatt_lib_db_4607:0x6FC[p]>
     D8B:	C900      	**prefx    0xC9
     D8C:	F618      	ld         x, #-0x370A
     D8D:	1B2B      	st         x, @(+0x1B, y)
     D8E:	1C0F      	leave      #+0x1C

0x00000D8F <___libgatt_lib_db_4632>:
     D8F:	0C0B      	enter      #+0xC
     D90:	3400      	**prefx    0x34
     D91:	B799      	tst        @0x33B7 <enable_lowduty_directed_adv>
     D92:	56F4      	beq        +0x56 <___libgatt_lib_db_4632+0x59:0xDE8[p]>
     D93:	0214      	ld         al, #+0x2
     D94:	0100      	**prefx    0x1
     D95:	AB00      	**prefx    0xAB
     D96:	2D9C      	bsr        +0xAB2D <___libgatt_lib_db_4015:0xB8C3[p]>
     D97:	0284      	cmp        al, #+0x2
     D98:	06F4      	beq        +0x6 <___libgatt_lib_db_4632+0xF:0xD9E[p]>
     D99:	CF00      	**prefx    0xCF
     D9A:	E314      	ld         al, #-0x311D
     D9B:	0B27      	st         al, @(+0xB, y)
     D9C:	0C14      	ld         al, #+0xC
     D9D:	4BE0      	bra        +0x4B <___libgatt_lib_db_4632+0x59:0xDE8[p]>
     D9E:	1A1B      	ld         x, @(+0x1A, y)
     D9F:	092B      	st         x, @(+0x9, y)
     DA0:	1D17      	ld         al, @(+0x1D, y)
     DA1:	0827      	st         al, @(+0x8, y)
     DA2:	1E1B      	ld         x, @(+0x1E, y)
     DA3:	072B      	st         x, @(+0x7, y)
     DA4:	1F17      	ld         al, @(+0x1F, y)
     DA5:	0A27      	st         al, @(+0xA, y)
     DA6:	4118      	ld         x, #+0x41
     DA7:	9700      	**prefx    0x97
     DA8:	5F29      	st         x, @0x975F <le_device+0xA>
     DA9:	0817      	ld         al, @(+0x8, y)
     DAA:	9700      	**prefx    0x97
     DAB:	6325      	st         al, @0x9763 <le_device+0xE>
     DAC:	E415      	ld         al, @0xFFE4 <register uy>
     DAD:	0134      	add        al, #+0x1
     DAE:	0100      	**prefx    0x1
     DAF:	A800      	**prefx    0xA8
     DB0:	E79C      	bsr        +0xA7E7 <___libgatt_lib_db_3944:0xB597[p]>
     DB1:	A200      	**prefx    0xA2
     DB2:	B715      	ld         al, @0xA1B7 <___libgatt_lib_db_4169>
     DB3:	0100      	**prefx    0x1
     DB4:	A800      	**prefx    0xA8
     DB5:	049C      	bsr        +0xA804 <___libgatt_lib_db_3947:0xB5B9[p]>
     DB6:	0627      	st         al, @(+0x6, y)
     DB7:	071B      	ld         x, @(+0x7, y)
     DB8:	9700      	**prefx    0x97
     DB9:	6229      	st         x, @0x9762 <le_device+0xD>
     DBA:	0414      	ld         al, #+0x4
     DBB:	9700      	**prefx    0x97
     DBC:	6410      	ld         ah, #-0x689C
     DBD:	0A1B      	ld         x, @(+0xA, y)
     DBE:	FD09      	bc2        
     DBF:	0A17      	ld         al, @(+0xA, y)
     DC0:	E411      	ld         ah, @0xFFE4 <register uy>
     DC1:	0330      	add        ah, #+0x3
     DC2:	0100      	**prefx    0x1
     DC3:	AB00      	**prefx    0xAB
     DC4:	539C      	bsr        +0xAB53 <___libgatt_lib_db_4023:0xB917[p]>
     DC5:	0617      	ld         al, @(+0x6, y)
     DC6:	0834      	add        al, #+0x8
     DC7:	0618      	ld         x, #+0x6
     DC8:	002B      	st         x, @(0x0, y)
     DC9:	E411      	ld         ah, @0xFFE4 <register uy>
     DCA:	0330      	add        ah, #+0x3
     DCB:	7F00      	**prefx    0x7F
     DCC:	149C      	bsr        +0x7F14 <MemCopyUnPack:0x8CE0[p]>
     DCD:	0C14      	ld         al, #+0xC
     DCE:	061B      	ld         x, @(+0x6, y)
     DCF:	0126      	st         al, @(+0x1, x)
     DD0:	0817      	ld         al, @(+0x8, y)
     DD1:	06A0      	asl        #0x6
     DD2:	F825      	st         al, @0xFFF8 <(scratchpad)>
     DD3:	0717      	ld         al, @(+0x7, y)
     DD4:	07A0      	asl        #0x7
     DD5:	F8B5      	or         al, @0xFFF8 <(scratchpad)>
     DD6:	01B4      	or         al, #+0x1
     DD7:	0026      	st         al, @(0x0, x)
     DD8:	E415      	ld         al, @0xFFE4 <register uy>
     DD9:	0134      	add        al, #+0x1
     DDA:	0100      	**prefx    0x1
     DDB:	A800      	**prefx    0xA8
     DDC:	C49C      	bsr        +0xA7C4 <___libgatt_lib_db_3945:0xB5A0[p]>
     DDD:	091B      	ld         x, @(+0x9, y)
     DDE:	F600      	**prefx    0xF6
     DDF:	F229      	st         x, @0xF5F2 <___libgatt_lib_db_1825>
     DE0:	F700      	**prefx    0xF7
     DE1:	B715      	ld         al, @0xF6B7 <___libgatt_lib_db_1826>
     DE2:	FDC4      	and        al, #0xFFFD
     DE3:	F700      	**prefx    0xF7
     DE4:	B725      	st         al, @0xF6B7 <___libgatt_lib_db_1826>
     DE5:	CF00      	**prefx    0xCF
     DE6:	DA14      	ld         al, #-0x3126
     DE7:	0B27      	st         al, @(+0xB, y)
     DE8:	0C0F      	leave      #+0xC

0x00000DE9 <___libgatt_lib_db_4633>:
     DE9:	020B      	enter      #+0x2
     DEA:	0014      	ld         al, #+0x0
     DEB:	0027      	st         al, @(0x0, y)
     DEC:	0917      	ld         al, @(+0x9, y)
     DED:	9000      	**prefx    0x90
     DEE:	9184      	cmp        al, #-0x706F
     DEF:	14F0      	bne        +0x14 <___libgatt_lib_db_4633+0x1A:0xE03[p]>
     DF0:	0100      	**prefx    0x1
     DF1:	BF00      	**prefx    0xBF
     DF2:	789C      	bsr        +0xBF78 <___libgatt_lib_db_4084:0xCD6A[p]>
     DF3:	0027      	st         al, @(0x0, y)
     DF4:	0017      	ld         al, @(0x0, y)
     DF5:	0CF0      	bne        +0xC <___libgatt_lib_db_4633+0x18:0xE01[p]>
     DF6:	9300      	**prefx    0x93
     DF7:	6815      	ld         al, @0x9368 <___libgatt_lib_db_73>
     DF8:	0284      	cmp        al, #+0x2
     DF9:	08F0      	bne        +0x8 <___libgatt_lib_db_4633+0x18:0xE01[p]>
     DFA:	9300      	**prefx    0x93
     DFB:	6915      	ld         al, @0x9369 <___libgatt_lib_db_73+0x1>
     DFC:	0284      	cmp        al, #+0x2
     DFD:	04F0      	bne        +0x4 <___libgatt_lib_db_4633+0x18:0xE01[p]>
     DFE:	9000      	**prefx    0x90
     DFF:	A514      	ld         al, #-0x705B
     E00:	0927      	st         al, @(+0x9, y)
     E01:	0017      	ld         al, @(0x0, y)
     E02:	0A0F      	leave      #+0xA
     E03:	020F      	leave      #+0x2

0x00000E04 <___libgatt_lib_db_4642>:
     E04:	050B      	enter      #+0x5
     E05:	0027      	st         al, @(0x0, y)
     E06:	0123      	st         ah, @(+0x1, y)
     E07:	0517      	ld         al, @(+0x5, y)
     E08:	0227      	st         al, @(+0x2, y)
     E09:	0617      	ld         al, @(+0x6, y)
     E0A:	0327      	st         al, @(+0x3, y)
     E0B:	0100      	**prefx    0x1
     E0C:	D700      	**prefx    0xD7
     E0D:	9A9C      	bsr        +0xD69A <___libgatt_lib_db_4276:0xE4A7[p]>
     E0E:	0017      	ld         al, @(0x0, y)
     E0F:	F600      	**prefx    0xF6
     E10:	2C25      	st         al, @0xF62C <___libgatt_lib_db_1756>
     E11:	0117      	ld         al, @(+0x1, y)
     E12:	F600      	**prefx    0xF6
     E13:	2D25      	st         al, @0xF62D <___libgatt_lib_db_1760>
     E14:	0217      	ld         al, @(+0x2, y)
     E15:	F600      	**prefx    0xF6
     E16:	2E25      	st         al, @0xF62E <___libgatt_lib_db_1761>
     E17:	0317      	ld         al, @(+0x3, y)
     E18:	F600      	**prefx    0xF6
     E19:	2F25      	st         al, @0xF62F <___libgatt_lib_db_1762>
     E1A:	0114      	ld         al, #+0x1
     E1B:	F600      	**prefx    0xF6
     E1C:	2B25      	st         al, @0xF62B <___libgatt_lib_db_1763>
     E1D:	F600      	**prefx    0xF6
     E1E:	2A11      	ld         ah, @0xF62A <___libgatt_lib_db_1755>
     E1F:	F600      	**prefx    0xF6
     E20:	2A15      	ld         al, @0xF62A <___libgatt_lib_db_1755>
     E21:	E0B5      	or         al, @0xFFE0 <register ah>
     E22:	FBF4      	beq        -0x5 <___libgatt_lib_db_4642+0x19:0xE1D[p]>
     E23:	0014      	ld         al, #+0x0
     E24:	F600      	**prefx    0xF6
     E25:	2B25      	st         al, @0xF62B <___libgatt_lib_db_1763>
     E26:	041B      	ld         x, @(+0x4, y)
     E27:	053C      	add        y, #+0x5
     E28:	0100      	**prefx    0x1
     E29:	D700      	**prefx    0xD7
     E2A:	86E0      	bra        +0xD686 <___libgatt_lib_db_4283:0xE4B0[p]>

0x00000E2B <___libgatt_lib_db_4636>:
     E2B:	060B      	enter      #+0x6
     E2C:	0427      	st         al, @(+0x4, y)
     E2D:	E415      	ld         al, @0xFFE4 <register uy>
     E2E:	579C      	bsr        +0x57 <___libgatt_lib_db_4651:0xE85[p]>
     E2F:	0714      	ld         al, #+0x7
     E30:	F800      	**prefx    0xF8
     E31:	5625      	st         al, @0xF856 <___libgatt_lib_db_3128>
     E32:	4618      	ld         x, #+0x46
     E33:	F000      	**prefx    0xF0
     E34:	5629      	st         x, @0xF056 <___libgatt_lib_db_1695>
     E35:	0417      	ld         al, @(+0x4, y)
     E36:	03A0      	asl        #0x3
     E37:	F600      	**prefx    0xF6
     E38:	3725      	st         al, @0xF637 <___libgatt_lib_db_1827>
     E39:	F600      	**prefx    0xF6
     E3A:	3415      	ld         al, @0xF634 <___libgatt_lib_db_1765>
     E3B:	40C4      	and        al, #0x40
     E3C:	08F0      	bne        +0x8 <___libgatt_lib_db_4636+0x19:0xE44[p]>
     E3D:	F600      	**prefx    0xF6
     E3E:	3315      	ld         al, @0xF633 <___libgatt_lib_db_1764>
     E3F:	0018      	ld         x, #+0x0
     E40:	032B      	st         x, @(+0x3, y)
     E41:	0100      	**prefx    0x1
     E42:	FFC4      	and        al, #0xFF
     E43:	03F0      	bne        +0x3 <___libgatt_lib_db_4636+0x1B:0xE46[p]>
     E44:	0114      	ld         al, #+0x1
     E45:	0327      	st         al, @(+0x3, y)
     E46:	E415      	ld         al, @0xFFE4 <register uy>
     E47:	4A9C      	bsr        +0x4A <___libgatt_lib_db_4650:0xE91[p]>
     E48:	0317      	ld         al, @(+0x3, y)
     E49:	060F      	leave      #+0x6

0x00000E4A <.LFB4>:
     E4A:	F600      	**prefx    0xF6
     E4B:	3C15      	ld         al, @0xF63C <___libgatt_lib_db_1754>
     E4C:	DFE0      	bra        -0x21 <___libgatt_lib_db_4636:0xE2B[p]>

0x00000E4D <___libgatt_lib_db_4641>:
     E4D:	040B      	enter      #+0x4
     E4E:	0127      	st         al, @(+0x1, y)
     E4F:	0223      	st         ah, @(+0x2, y)
     E50:	FA9C      	bsr        -0x6 <.LFB4:0xE4A[p]>
     E51:	E199      	tst        @0xFFE1 <register al>
     E52:	FEF4      	beq        -0x2 <___libgatt_lib_db_4641+0x3:0xE50[p]>
     E53:	0417      	ld         al, @(+0x4, y)
     E54:	0027      	st         al, @(0x0, y)
     E55:	0117      	ld         al, @(+0x1, y)
     E56:	0213      	ld         ah, @(+0x2, y)
     E57:	0100      	**prefx    0x1
     E58:	C400      	**prefx    0xC4
     E59:	249C      	bsr        +0xC424 <___libgatt_lib_db_4122:0xD27D[p]>
     E5A:	F09C      	bsr        -0x10 <.LFB4:0xE4A[p]>
     E5B:	E199      	tst        @0xFFE1 <register al>
     E5C:	F4F4      	beq        -0xC <___libgatt_lib_db_4641+0x3:0xE50[p]>
     E5D:	040F      	leave      #+0x4

0x00000E5E <___libgatt_lib_db_4639>:
     E5E:	040B      	enter      #+0x4
     E5F:	0027      	st         al, @(0x0, y)
     E60:	EA9C      	bsr        -0x16 <.LFB4:0xE4A[p]>
     E61:	E199      	tst        @0xFFE1 <register al>
     E62:	FEF4      	beq        -0x2 <___libgatt_lib_db_4639+0x2:0xE60[p]>
     E63:	0017      	ld         al, @(0x0, y)
     E64:	0100      	**prefx    0x1
     E65:	C400      	**prefx    0xC4
     E66:	4E9C      	bsr        +0xC44E <___libgatt_lib_db_4120:0xD2B4[p]>
     E67:	0227      	st         al, @(+0x2, y)
     E68:	0123      	st         ah, @(+0x1, y)
     E69:	E19C      	bsr        -0x1F <.LFB4:0xE4A[p]>
     E6A:	E199      	tst        @0xFFE1 <register al>
     E6B:	F5F4      	beq        -0xB <___libgatt_lib_db_4639+0x2:0xE60[p]>
     E6C:	0217      	ld         al, @(+0x2, y)
     E6D:	0113      	ld         ah, @(+0x1, y)
     E6E:	040F      	leave      #+0x4

0x00000E6F <___libgatt_lib_db_4638>:
     E6F:	030B      	enter      #+0x3
     E70:	0127      	st         al, @(+0x1, y)
     E71:	D99C      	bsr        -0x27 <.LFB4:0xE4A[p]>
     E72:	E199      	tst        @0xFFE1 <register al>
     E73:	FEF4      	beq        -0x2 <___libgatt_lib_db_4638+0x2:0xE71[p]>
     E74:	0117      	ld         al, @(+0x1, y)
     E75:	0100      	**prefx    0x1
     E76:	C400      	**prefx    0xC4
     E77:	679C      	bsr        +0xC467 <___libgatt_lib_db_4119:0xD2DE[p]>
     E78:	0027      	st         al, @(0x0, y)
     E79:	D19C      	bsr        -0x2F <.LFB4:0xE4A[p]>
     E7A:	E199      	tst        @0xFFE1 <register al>
     E7B:	F6F4      	beq        -0xA <___libgatt_lib_db_4638+0x2:0xE71[p]>
     E7C:	0017      	ld         al, @(0x0, y)
     E7D:	030F      	leave      #+0x3

0x00000E7E <___libgatt_lib_db_4637>:
     E7E:	020B      	enter      #+0x2
     E7F:	0027      	st         al, @(0x0, y)
     E80:	0017      	ld         al, @(0x0, y)
     E81:	AA9C      	bsr        -0x56 <___libgatt_lib_db_4636:0xE2B[p]>
     E82:	E199      	tst        @0xFFE1 <register al>
     E83:	FDF4      	beq        -0x3 <___libgatt_lib_db_4637+0x2:0xE80[p]>
     E84:	020F      	leave      #+0x2

0x00000E85 <___libgatt_lib_db_4651>:
     E85:	010B      	enter      #+0x1
     E86:	E119      	ld         x, @0xFFE1 <register al>
     E87:	F800      	**prefx    0xF8
     E88:	5615      	ld         al, @0xF856 <___libgatt_lib_db_3128>
     E89:	0026      	st         al, @(0x0, x)
     E8A:	F000      	**prefx    0xF0
     E8B:	5615      	ld         al, @0xF056 <___libgatt_lib_db_1695>
     E8C:	0126      	st         al, @(+0x1, x)
     E8D:	F600      	**prefx    0xF6
     E8E:	3715      	ld         al, @0xF637 <___libgatt_lib_db_1827>
     E8F:	0226      	st         al, @(+0x2, x)
     E90:	010F      	leave      #+0x1

0x00000E91 <___libgatt_lib_db_4650>:
     E91:	010B      	enter      #+0x1
     E92:	E119      	ld         x, @0xFFE1 <register al>
     E93:	0016      	ld         al, @(0x0, x)
     E94:	F800      	**prefx    0xF8
     E95:	5625      	st         al, @0xF856 <___libgatt_lib_db_3128>
     E96:	0116      	ld         al, @(+0x1, x)
     E97:	F000      	**prefx    0xF0
     E98:	5625      	st         al, @0xF056 <___libgatt_lib_db_1695>
     E99:	0216      	ld         al, @(+0x2, x)
     E9A:	F600      	**prefx    0xF6
     E9B:	3725      	st         al, @0xF637 <___libgatt_lib_db_1827>
     E9C:	010F      	leave      #+0x1

0x00000E9D <___libgatt_lib_db_4206>:
     E9D:	3400      	**prefx    0x34
     E9E:	B299      	tst        @0x33B2 <enable_lo_offset_adc_update>
     E9F:	0AF4      	beq        +0xA <___libgatt_lib_db_4206+0xC:0xEA9[p]>
     EA0:	F000      	**prefx    0xF0
     EA1:	2A15      	ld         al, @0xF02A <___libgatt_lib_db_918>
     EA2:	FF00      	**prefx    0xFF
     EA3:	00C4      	and        al, #0xFF00
     EA4:	0100      	**prefx    0x1
     EA5:	BFB4      	or         al, #+0xBF
     EA6:	F000      	**prefx    0xF0
     EA7:	2A25      	st         al, @0xF02A <___libgatt_lib_db_918>
     EA8:	08E0      	bra        +0x8 <___libgatt_lib_db_4206+0x13:0xEB0[p]>
     EA9:	0014      	ld         al, #+0x0
     EAA:	F700      	**prefx    0xF7
     EAB:	8925      	st         al, @0xF689 <___libgatt_lib_db_1907>
     EAC:	0400      	**prefx    0x4
     EAD:	FF14      	ld         al, #+0x3FF
     EAE:	F700      	**prefx    0xF7
     EAF:	8A25      	st         al, @0xF68A <___libgatt_lib_db_1906>
     EB0:	0200      	**prefx    0x2
     EB1:	0014      	ld         al, #+0x200
     EB2:	9C00      	**prefx    0x9C
     EB3:	8625      	st         al, @0x9B86 <DATA_RCLUTS_START+0x6>
     EB4:	9C00      	**prefx    0x9C
     EB5:	A625      	st         al, @0x9BA6 <DATA_RCLUTS_START+0x26>
     EB6:	0014      	ld         al, #+0x0
     EB7:	F200      	**prefx    0xF2
     EB8:	2425      	st         al, @0xF224 <___libgatt_lib_db_1596>
     EB9:	00E2      	bra        0x0, x

0x00000EBA <___libgatt_lib_db_4208>:
     EBA:	0117      	ld         al, @(+0x1, y)
     EBB:	D700      	**prefx    0xD7
     EBC:	E784      	cmp        al, #-0x2919
     EBD:	0DF0      	bne        +0xD <UART_RATE_921K6+0xB:0xECA[p]>
     EBE:	0200      	**prefx    0x2
     EBF:	4814      	ld         al, #+0x248
     EC0:	F000      	**prefx    0xF0
     EC1:	0F25      	st         al, @0xF00F <___libgatt_lib_db_1018>
     EC2:	0100      	**prefx    0x1
     EC3:	6814      	ld         al, #+0x168
     EC4:	F700      	**prefx    0xF7
     EC5:	8925      	st         al, @0xF689 <___libgatt_lib_db_1907>
     EC6:	0300      	**prefx    0x3
     EC7:	B014      	ld         al, #+0x2B0
     EC8:	F700      	**prefx    0xF7
     EC9:	8A25      	st         al, @0xF68A <___libgatt_lib_db_1906>
     ECA:	00E2      	bra        0x0, x

0x00000ECB <___libgatt_lib_db_4209>:
     ECB:	020B      	enter      #+0x2
     ECC:	0217      	ld         al, @(+0x2, y)
     ECD:	DA00      	**prefx    0xDA
     ECE:	AD84      	cmp        al, #-0x2653
     ECF:	40F0      	bne        +0x40 <___libgatt_lib_db_4209+0x44:0xF0F[p]>
     ED0:	3317      	ld         al, @(+0x33, y)
     ED1:	46F0      	bne        +0x46 <___libgatt_lib_db_4209+0x4C:0xF17[p]>
     ED2:	3400      	**prefx    0x34
     ED3:	AE15      	ld         al, @0x33AE <patch_pending_mode+0x2>
     ED4:	F300      	**prefx    0xF3
     ED5:	F234      	add        al, #-0xD0E
     ED6:	FF27      	st         al, @(-0x1, y)
     ED7:	FF9F      	bsr        @(-0x1, y)
     ED8:	E111      	ld         ah, @0xFFE1 <register al>
     ED9:	3517      	ld         al, @(+0x35, y)
     EDA:	1AF0      	bne        +0x1A <___libgatt_lib_db_4209+0x29:0xEF4[p]>
     EDB:	F000      	**prefx    0xF0
     EDC:	1D15      	ld         al, @0xF01D <___libgatt_lib_db_1003>
     EDD:	F100      	**prefx    0xF1
     EDE:	FFC4      	and        al, #0xF0FF
     EDF:	0500      	**prefx    0x5
     EE0:	00B4      	or         al, #+0x500
     EE1:	F000      	**prefx    0xF0
     EE2:	1D25      	st         al, @0xF01D <___libgatt_lib_db_1003>
     EE3:	0200      	**prefx    0x2
     EE4:	1D80      	cmp        ah, #+0x21D
     EE5:	04F8      	bcc        +0x4 <___libgatt_lib_db_4209+0x1E:0xEE9[p]>
     EE6:	0200      	**prefx    0x2
     EE7:	ED14      	ld         al, #+0x1ED
     EE8:	03E0      	bra        +0x3 <___libgatt_lib_db_4209+0x20:0xEEB[p]>
     EE9:	0200      	**prefx    0x2
     EEA:	FF14      	ld         al, #+0x1FF
     EEB:	0027      	st         al, @(0x0, y)
     EEC:	3400      	**prefx    0x34
     EED:	AE11      	ld         ah, @0x33AE <patch_pending_mode+0x2>
     EEE:	FB00      	**prefx    0xFB
     EEF:	0230      	add        ah, #-0x4FE
     EF0:	0314      	ld         al, #+0x3
     EF1:	FF23      	st         ah, @(-0x1, y)
     EF2:	FF9F      	bsr        @(-0x1, y)
     EF3:	12E0      	bra        +0x12 <___libgatt_lib_db_4209+0x3A:0xF05[p]>
     EF4:	F000      	**prefx    0xF0
     EF5:	1D15      	ld         al, @0xF01D <___libgatt_lib_db_1003>
     EF6:	F100      	**prefx    0xF1
     EF7:	FFC4      	and        al, #0xF0FF
     EF8:	0600      	**prefx    0x6
     EF9:	00B4      	or         al, #+0x600
     EFA:	F000      	**prefx    0xF0
     EFB:	1D25      	st         al, @0xF01D <___libgatt_lib_db_1003>
     EFC:	0200      	**prefx    0x2
     EFD:	1D80      	cmp        ah, #+0x21D
     EFE:	04F8      	bcc        +0x4 <___libgatt_lib_db_4209+0x37:0xF02[p]>
     EFF:	0200      	**prefx    0x2
     F00:	1214      	ld         al, #+0x212
     F01:	03E0      	bra        +0x3 <___libgatt_lib_db_4209+0x39:0xF04[p]>
     F02:	0200      	**prefx    0x2
     F03:	2714      	ld         al, #+0x227
     F04:	0027      	st         al, @(0x0, y)
     F05:	0017      	ld         al, @(0x0, y)
     F06:	3427      	st         al, @(+0x34, y)
     F07:	3400      	**prefx    0x34
     F08:	AE11      	ld         ah, @0x33AE <patch_pending_mode+0x2>
     F09:	B300      	**prefx    0xB3
     F0A:	5C30      	add        ah, #-0x4CA4
     F0B:	1414      	ld         al, #+0x14
     F0C:	FF23      	st         ah, @(-0x1, y)
     F0D:	FF9F      	bsr        @(-0x1, y)
     F0E:	09E0      	bra        +0x9 <___libgatt_lib_db_4209+0x4C:0xF17[p]>
     F0F:	D600      	**prefx    0xD6
     F10:	7284      	cmp        al, #-0x298E
     F11:	06F0      	bne        +0x6 <___libgatt_lib_db_4209+0x4C:0xF17[p]>
     F12:	0014      	ld         al, #+0x0
     F13:	0527      	st         al, @(+0x5, y)
     F14:	D700      	**prefx    0xD7
     F15:	8414      	ld         al, #-0x297C
     F16:	0227      	st         al, @(+0x2, y)
     F17:	020F      	leave      #+0x2

0x00000F18 <.LFB10>:
     F18:	010B      	enter      #+0x1
     F19:	1384      	cmp        al, #+0x13
     F1A:	0428      	ble        +0x4 <.LFB10+0x6:0xF1E[p]>
     F1B:	0014      	ld         al, #+0x0
     F1C:	F925      	st         al, @0xFFF9 <(scratchpad)>
     F1D:	0FE0      	bra        +0xF <.LFB10+0x14:0xF2C[p]>
     F1E:	1418      	ld         x, #+0x14
     F1F:	E159      	sub        x, @0xFFE1 <register al>
     F20:	E311      	ld         ah, @0xFFE3 <register uxl>
     F21:	0730      	add        ah, #+0x7
     F22:	10A4      	asr        #0x10
     F23:	0F94      	sdiv       #+0xF
     F24:	F925      	st         al, @0xFFF9 <(scratchpad)>
     F25:	E315      	ld         al, @0xFFE3 <register uxl>
     F26:	0A90      	smult      #+0xA
     F27:	E119      	ld         x, @0xFFE1 <register al>
     F28:	0D38      	add        x, #+0xD
     F29:	E311      	ld         ah, @0xFFE3 <register uxl>
     F2A:	10A4      	asr        #0x10
     F2B:	1A94      	sdiv       #+0x1A
     F2C:	F100      	**prefx    0xF1
     F2D:	0619      	ld         x, @0xF106 <___libgatt_lib_db_2240>
     F2E:	F000      	**prefx    0xF0
     F2F:	00C8      	and        x, #0xF000
     F30:	E1B9      	or         x, @0xFFE1 <register al>
     F31:	06A0      	asl        #0x6
     F32:	E1B9      	or         x, @0xFFE1 <register al>
     F33:	F100      	**prefx    0xF1
     F34:	0629      	st         x, @0xF106 <___libgatt_lib_db_2240>
     F35:	3400      	**prefx    0x34
     F36:	AF19      	ld         x, @0x33AF <patch_pending_mode+0x3>
     F37:	F829      	st         x, @0xFFF8 <(scratchpad)>
     F38:	0016      	ld         al, @(0x0, x)
     F39:	F955      	sub        al, @0xFFF9 <(scratchpad)>
     F3A:	F000      	**prefx    0xF0
     F3B:	0025      	st         al, @0xF000 <PERSIST_MEM_END>
     F3C:	02A0      	asl        #0x2
     F3D:	E111      	ld         ah, @0xFFE1 <register al>
     F3E:	10A4      	asr        #0x10
     F3F:	2694      	sdiv       #+0x26
     F40:	1334      	add        al, #+0x13
     F41:	F700      	**prefx    0xF7
     F42:	B025      	st         al, @0xF6B0 <___libgatt_lib_db_2014>
     F43:	0316      	ld         al, @(+0x3, x)
     F44:	04A0      	asl        #0x4
     F45:	9C00      	**prefx    0x9C
     F46:	8211      	ld         ah, @0x9B82 <DATA_RCLUTS_START+0x2>
     F47:	8FC0      	and        ah, #0xFF8F
     F48:	E0B5      	or         al, @0xFFE0 <register ah>
     F49:	9C00      	**prefx    0x9C
     F4A:	8225      	st         al, @0x9B82 <DATA_RCLUTS_START+0x2>
     F4B:	0216      	ld         al, @(+0x2, x)
     F4C:	04A0      	asl        #0x4
     F4D:	9C00      	**prefx    0x9C
     F4E:	8111      	ld         ah, @0x9B81 <DATA_RCLUTS_START+0x1>
     F4F:	FF00      	**prefx    0xFF
     F50:	0FC0      	and        ah, #0xFF0F
     F51:	E0B5      	or         al, @0xFFE0 <register ah>
     F52:	9C00      	**prefx    0x9C
     F53:	8125      	st         al, @0x9B81 <DATA_RCLUTS_START+0x1>
     F54:	F000      	**prefx    0xF0
     F55:	0C15      	ld         al, @0xF00C <___libgatt_lib_db_1004>
     F56:	F925      	st         al, @0xFFF9 <(scratchpad)>
     F57:	0316      	ld         al, @(+0x3, x)
     F58:	04A0      	asl        #0x4
     F59:	F919      	ld         x, @0xFFF9 <(scratchpad)>
     F5A:	8FC8      	and        x, #0xFF8F
     F5B:	E3B5      	or         al, @0xFFE3 <register uxl>
     F5C:	F000      	**prefx    0xF0
     F5D:	0C25      	st         al, @0xF00C <___libgatt_lib_db_1004>
     F5E:	F000      	**prefx    0xF0
     F5F:	0B15      	ld         al, @0xF00B <___libgatt_lib_db_1387>
     F60:	F925      	st         al, @0xFFF9 <(scratchpad)>
     F61:	F819      	ld         x, @0xFFF8 <(scratchpad)>
     F62:	0216      	ld         al, @(+0x2, x)
     F63:	04A0      	asl        #0x4
     F64:	F919      	ld         x, @0xFFF9 <(scratchpad)>
     F65:	FF00      	**prefx    0xFF
     F66:	0FC8      	and        x, #0xFF0F
     F67:	E3B5      	or         al, @0xFFE3 <register uxl>
     F68:	F000      	**prefx    0xF0
     F69:	0B25      	st         al, @0xF00B <___libgatt_lib_db_1387>
     F6A:	F819      	ld         x, @0xFFF8 <(scratchpad)>
     F6B:	0116      	ld         al, @(+0x1, x)
     F6C:	F000      	**prefx    0xF0
     F6D:	0125      	st         al, @0xF001 <___libgatt_lib_db_1388>
     F6E:	010F      	leave      #+0x1

0x00000F6F <___libgatt_lib_db_4657>:
     F6F:	010B      	enter      #+0x1
     F70:	0590      	smult      #+0x5
     F71:	3300      	**prefx    0x33
     F72:	7B34      	add        al, #+0x337B
     F73:	3400      	**prefx    0x34
     F74:	AF25      	st         al, @0x33AF <patch_pending_mode+0x3>
     F75:	3400      	**prefx    0x34
     F76:	AE15      	ld         al, @0x33AE <patch_pending_mode+0x2>
     F77:	F900      	**prefx    0xF9
     F78:	3B34      	add        al, #-0x6C5
     F79:	FF27      	st         al, @(-0x1, y)
     F7A:	FF9F      	bsr        @(-0x1, y)
     F7B:	001B      	ld         x, @(0x0, y)
     F7C:	013C      	add        y, #+0x1
     F7D:	9BE0      	bra        -0x65 <.LFB10:0xF18[p]>

0x00000F7E <___libgatt_lib_db_4655>:
     F7E:	010B      	enter      #+0x1
     F7F:	3400      	**prefx    0x34
     F80:	AF99      	tst        @0x33AF <patch_pending_mode+0x3>
     F81:	04F0      	bne        +0x4 <___libgatt_lib_db_4655+0x7:0xF85[p]>
     F82:	A000      	**prefx    0xA0
     F83:	9615      	ld         al, @0x9F96 <DATA_CSTORE_START+0x12>
     F84:	EB9C      	bsr        -0x15 <___libgatt_lib_db_4657:0xF6F[p]>
     F85:	2217      	ld         al, @(+0x22, y)
     F86:	929C      	bsr        -0x6E <.LFB10:0xF18[p]>
     F87:	010F      	leave      #+0x1

0x00000F88 <___libgatt_lib_db_4205>:
     F88:	1D00      	**prefx    0x1D
     F89:	D014      	ld         al, #+0x1CD0
     F8A:	F200      	**prefx    0xF2
     F8B:	2725      	st         al, @0xF227 <___libgatt_lib_db_1528>
     F8C:	3C00      	**prefx    0x3C
     F8D:	0A14      	ld         al, #+0x3C0A
     F8E:	F200      	**prefx    0xF2
     F8F:	2825      	st         al, @0xF228 <___libgatt_lib_db_1529>
     F90:	00E2      	bra        0x0, x

0x00000F91 <___libgatt_lib_db_4663>:
     F91:	050B      	enter      #+0x5
     F92:	0100      	**prefx    0x1
     F93:	E300      	**prefx    0xE3
     F94:	2B9C      	bsr        +0xE32B <___libgatt_lib_db_4439:0xF2BF[p]>
     F95:	0327      	st         al, @(+0x3, y)
     F96:	F600      	**prefx    0xF6
     F97:	1915      	ld         al, @0xF619 <___libgatt_lib_db_1964>
     F98:	7F00      	**prefx    0x7F
     F99:	00C4      	and        al, #0x7F00
     F9A:	2AB4      	or         al, #+0x2A
     F9B:	F600      	**prefx    0xF6
     F9C:	1925      	st         al, @0xF619 <___libgatt_lib_db_1964>
     F9D:	4100      	**prefx    0x41
     F9E:	2914      	ld         al, #+0x4129
     F9F:	F600      	**prefx    0xF6
     FA0:	1B25      	st         al, @0xF61B <___libgatt_lib_db_1956>
     FA1:	7100      	**prefx    0x71
     FA2:	7614      	ld         al, #+0x7176
     FA3:	F600      	**prefx    0xF6
     FA4:	1A25      	st         al, @0xF61A <___libgatt_lib_db_1955>
     FA5:	5500      	**prefx    0x55
     FA6:	5514      	ld         al, #+0x5555
     FA7:	F600      	**prefx    0xF6
     FA8:	2125      	st         al, @0xF621 <___libgatt_lib_db_1966>
     FA9:	5514      	ld         al, #+0x55
     FAA:	F600      	**prefx    0xF6
     FAB:	2025      	st         al, @0xF620 <___libgatt_lib_db_1965>
     FAC:	E415      	ld         al, @0xFFE4 <register uy>
     FAD:	6410      	ld         ah, #+0x64
     FAE:	7E00      	**prefx    0x7E
     FAF:	889C      	bsr        +0x7D88 <TimeGet48WithOffset:0x8D37[p]>
     FB0:	F600      	**prefx    0xF6
     FB1:	2618      	ld         x, #-0x9DA
     FB2:	0017      	ld         al, @(0x0, y)
     FB3:	0026      	st         al, @(0x0, x)
     FB4:	0117      	ld         al, @(+0x1, y)
     FB5:	FF26      	st         al, @(-0x1, x)
     FB6:	0217      	ld         al, @(+0x2, y)
     FB7:	F600      	**prefx    0xF6
     FB8:	2425      	st         al, @0xF624 <___libgatt_lib_db_1984>
     FB9:	6414      	ld         al, #+0x64
     FBA:	F700      	**prefx    0xF7
     FBB:	8625      	st         al, @0xF686 <___libgatt_lib_db_1982>
     FBC:	0014      	ld         al, #+0x0
     FBD:	F700      	**prefx    0xF7
     FBE:	8525      	st         al, @0xF685 <___libgatt_lib_db_1981>
     FBF:	0114      	ld         al, #+0x1
     FC0:	F600      	**prefx    0xF6
     FC1:	2225      	st         al, @0xF622 <___libgatt_lib_db_1971>
     FC2:	0100      	**prefx    0x1
     FC3:	9614      	ld         al, #+0x96
     FC4:	0100      	**prefx    0x1
     FC5:	A400      	**prefx    0xA4
     FC6:	969C      	bsr        +0xA396 <TimeDelayUSec:0xB35C[p]>
     FC7:	0314      	ld         al, #+0x3
     FC8:	F600      	**prefx    0xF6
     FC9:	5C25      	st         al, @0xF65C <___libgatt_lib_db_1425>
     FCA:	0214      	ld         al, #+0x2
     FCB:	F600      	**prefx    0xF6
     FCC:	5C25      	st         al, @0xF65C <___libgatt_lib_db_1425>
     FCD:	0014      	ld         al, #+0x0
     FCE:	F600      	**prefx    0xF6
     FCF:	5C25      	st         al, @0xF65C <___libgatt_lib_db_1425>
     FD0:	3214      	ld         al, #+0x32
     FD1:	0100      	**prefx    0x1
     FD2:	A400      	**prefx    0xA4
     FD3:	899C      	bsr        +0xA389 <TimeDelayUSec:0xB35C[p]>
     FD4:	0214      	ld         al, #+0x2
     FD5:	F600      	**prefx    0xF6
     FD6:	2225      	st         al, @0xF622 <___libgatt_lib_db_1971>
     FD7:	0317      	ld         al, @(+0x3, y)
     FD8:	0100      	**prefx    0x1
     FD9:	E400      	**prefx    0xE4
     FDA:	A89C      	bsr        +0xE3A8 <___libgatt_lib_db_4443:0xF382[p]>
     FDB:	5414      	ld         al, #+0x54
     FDC:	F000      	**prefx    0xF0
     FDD:	5325      	st         al, @0xF053 <___libgatt_lib_db_4430>
     FDE:	FD00      	**prefx    0xFD
     FDF:	0014      	ld         al, #-0x300
     FE0:	F600      	**prefx    0xF6
     FE1:	4625      	st         al, @0xF646 <___libgatt_lib_db_1882>
     FE2:	9114      	ld         al, #-0x6F
     FE3:	F600      	**prefx    0xF6
     FE4:	4725      	st         al, @0xF647 <___libgatt_lib_db_1884>
     FE5:	050F      	leave      #+0x5

0x00000FE6 <___libgatt_lib_db_4665>:
     FE6:	010B      	enter      #+0x1
     FE7:	E315      	ld         al, @0xFFE3 <register uxl>
     FE8:	E000      	**prefx    0xE0
     FE9:	6084      	cmp        al, #-0x1FA0
     FEA:	1FF0      	bne        +0x1F <___libgatt_lib_db_1085+0x9:0x1009[p]>
     FEB:	0917      	ld         al, @(+0x9, y)
     FEC:	E100      	**prefx    0xE1
     FED:	EA84      	cmp        al, #-0x1F16
     FEE:	1BF0      	bne        +0x1B <___libgatt_lib_db_1085+0x9:0x1009[p]>
     FEF:	0B13      	ld         ah, @(+0xB, y)
     FF0:	3400      	**prefx    0x34
     FF1:	B015      	ld         al, @0x33B0 <patch_pending_mode+0x4>
     FF2:	9300      	**prefx    0x93
     FF3:	A634      	add        al, #-0x6D5A
     FF4:	E085      	cmp        al, @0xFFE0 <register ah>
     FF5:	14F0      	bne        +0x14 <___libgatt_lib_db_1085+0x9:0x1009[p]>
     FF6:	3400      	**prefx    0x34
     FF7:	0515      	ld         al, @0x3405 <___libgatt_lib_db_4667>
     FF8:	07F4      	beq        +0x7 <___libgatt_lib_db_4665+0x19:0xFFF[p]>
     FF9:	0009      	**unsigned
     FFA:	2700      	**prefx    0x27
     FFB:	1090      	umult      #0x2710
     FFC:	0827      	st         al, @(+0x8, y)
     FFD:	0723      	st         ah, @(+0x7, y)
     FFE:	0BE0      	bra        +0xB <___libgatt_lib_db_1085+0x9:0x1009[p]>
     FFF:	3400      	**prefx    0x34
    1000:	B011      	ld         ah, @0x33B0 <patch_pending_mode+0x4>
    1001:	E000      	**prefx    0xE0
    1002:	1930      	add        ah, #-0x1FE7
    1003:	9400      	**prefx    0x94
    1004:	7015      	ld         al, @0x9470 <tid_con_param_update>
    1005:	FF23      	st         ah, @(-0x1, y)
    1006:	FF9F      	bsr        @(-0x1, y)
    1007:	0014      	ld         al, #+0x0
    1008:	0F0F      	leave      #+0xF
    1009:	010F      	leave      #+0x1

0x0000100A <___libgatt_lib_db_4668>:
    100A:	010B      	enter      #+0x1
    100B:	E315      	ld         al, @0xFFE3 <register uxl>
    100C:	E300      	**prefx    0xE3
    100D:	DD84      	cmp        al, #-0x1D23
    100E:	07F0      	bne        +0x7 <___libgatt_lib_db_4668+0xB:0x1015[p]>
    100F:	4D15      	ld         al, @0x4D <___libgatt_lib_db_2571>
    1010:	07C4      	and        al, #0x7
    1011:	15F4      	beq        +0x15 <___libgatt_lib_db_4668+0x1C:0x1026[p]>
    1012:	0014      	ld         al, #+0x0
    1013:	0327      	st         al, @(+0x3, y)
    1014:	12E0      	bra        +0x12 <___libgatt_lib_db_4668+0x1C:0x1026[p]>
    1015:	E315      	ld         al, @0xFFE3 <register uxl>
    1016:	E300      	**prefx    0xE3
    1017:	3A84      	cmp        al, #-0x1CC6
    1018:	0EF0      	bne        +0xE <___libgatt_lib_db_4668+0x1C:0x1026[p]>
    1019:	0100      	**prefx    0x1
    101A:	D500      	**prefx    0xD5
    101B:	8C9C      	bsr        +0xD48C <___libgatt_lib_db_4276:0xE4A7[p]>
    101C:	5115      	ld         al, @0x51 <___libgatt_lib_db_2885>
    101D:	5019      	ld         x, @0x50 <___libgatt_lib_db_2559>
    101E:	E311      	ld         ah, @0xFFE3 <register uxl>
    101F:	0600      	**prefx    0x6
    1020:	00B4      	or         al, #+0x600
    1021:	5125      	st         al, @0x51 <___libgatt_lib_db_2885>
    1022:	5021      	st         ah, @0x50 <___libgatt_lib_db_2559>
    1023:	0100      	**prefx    0x1
    1024:	D500      	**prefx    0xD5
    1025:	8B9C      	bsr        +0xD48B <___libgatt_lib_db_4283:0xE4B0[p]>
    1026:	010F      	leave      #+0x1

0x00001027 <___libgatt_lib_db_4207>:
    1027:	1300      	**prefx    0x13
    1028:	7B14      	ld         al, #+0x137B
    1029:	F900      	**prefx    0xF9
    102A:	4225      	st         al, @0xF942 <___libgatt_lib_db_2749>
    102B:	F700      	**prefx    0xF7
    102C:	2B15      	ld         al, @0xF72B <___libgatt_lib_db_3266>
    102D:	04B4      	or         al, #+0x4
    102E:	F700      	**prefx    0xF7
    102F:	2B25      	st         al, @0xF72B <___libgatt_lib_db_3266>
    1030:	0014      	ld         al, #+0x0
    1031:	F900      	**prefx    0xF9
    1032:	4225      	st         al, @0xF942 <___libgatt_lib_db_2749>
    1033:	00E2      	bra        0x0, x

0x00001034 <___libgatt_lib_db_4670>:
    1034:	010B      	enter      #+0x1
    1035:	A000      	**prefx    0xA0
    1036:	C315      	ld         al, @0x9FC3 <DATA_CSTORE_START+0x3F>
    1037:	FE00      	**prefx    0xFE
    1038:	A125      	st         al, @0xFDA1 <___libgatt_lib_db_3063>
    1039:	0018      	ld         x, #+0x0
    103A:	9C00      	**prefx    0x9C
    103B:	C012      	ld         ah, @(-0x6440, x)
    103C:	E015      	ld         al, @0xFFE0 <register ah>
    103D:	0434      	add        al, #+0x4
    103E:	3FC4      	and        al, #0x3F
    103F:	0984      	cmp        al, #+0x9
    1040:	04F8      	bcc        +0x4 <___libgatt_lib_db_4670+0x10:0x1044[p]>
    1041:	E600      	**prefx    0xE6
    1042:	0030      	add        ah, #-0x1A00
    1043:	03E0      	bra        +0x3 <___libgatt_lib_db_4670+0x12:0x1046[p]>
    1044:	F000      	**prefx    0xF0
    1045:	0030      	add        ah, #-0x1000
    1046:	9C00      	**prefx    0x9C
    1047:	C022      	st         ah, @(-0x6440, x)
    1048:	0138      	add        x, #+0x1
    1049:	2788      	cmp        x, #+0x27
    104A:	F0F0      	bne        -0x10 <___libgatt_lib_db_4670+0x6:0x103A[p]>
    104B:	9C00      	**prefx    0x9C
    104C:	E715      	ld         al, @0x9BE7 <___libgatt_lib_db_165+0x20>
    104D:	1000      	**prefx    0x10
    104E:	0034      	add        al, #+0x1000
    104F:	9C00      	**prefx    0x9C
    1050:	E725      	st         al, @0x9BE7 <___libgatt_lib_db_165+0x20>
    1051:	0614      	ld         al, #+0x6
    1052:	9C00      	**prefx    0x9C
    1053:	8A25      	st         al, @0x9B8A <DATA_RCLUTS_START+0xA>
    1054:	9C00      	**prefx    0x9C
    1055:	AA25      	st         al, @0x9BAA <DATA_RCLUTS_START+0x2A>
    1056:	0100      	**prefx    0x1
    1057:	6814      	ld         al, #+0x168
    1058:	F700      	**prefx    0xF7
    1059:	8925      	st         al, @0xF689 <___libgatt_lib_db_1907>
    105A:	0300      	**prefx    0x3
    105B:	B014      	ld         al, #+0x2B0
    105C:	F700      	**prefx    0xF7
    105D:	8A25      	st         al, @0xF68A <___libgatt_lib_db_1906>
    105E:	0100      	**prefx    0x1
    105F:	C014      	ld         al, #+0xC0
    1060:	9C00      	**prefx    0x9C
    1061:	9125      	st         al, @0x9B91 <DATA_RCLUTS_START+0x11>
    1062:	9C00      	**prefx    0x9C
    1063:	B125      	st         al, @0x9BB1 <DATA_RCLUTS_START+0x31>
    1064:	0700      	**prefx    0x7
    1065:	0E14      	ld         al, #+0x70E
    1066:	9C00      	**prefx    0x9C
    1067:	8E25      	st         al, @0x9B8E <DATA_RCLUTS_START+0xE>
    1068:	9C00      	**prefx    0x9C
    1069:	AE25      	st         al, @0x9BAE <DATA_RCLUTS_START+0x2E>
    106A:	0C00      	**prefx    0xC
    106B:	1214      	ld         al, #+0xC12
    106C:	9C00      	**prefx    0x9C
    106D:	8F25      	st         al, @0x9B8F <DATA_RCLUTS_START+0xF>
    106E:	9C00      	**prefx    0x9C
    106F:	AF25      	st         al, @0x9BAF <DATA_RCLUTS_START+0x2F>
    1070:	4014      	ld         al, #+0x40
    1071:	9C00      	**prefx    0x9C
    1072:	9725      	st         al, @0x9B97 <DATA_RCLUTS_START+0x17>
    1073:	9C00      	**prefx    0x9C
    1074:	B725      	st         al, @0x9BB7 <DATA_RCLUTS_START+0x37>
    1075:	9B00      	**prefx    0x9B
    1076:	7B18      	ld         x, #-0x6485
    1077:	FC16      	ld         al, @(-0x4, x)
    1078:	0026      	st         al, @(0x0, x)
    1079:	FF38      	add        x, #-0x1
    107A:	9B00      	**prefx    0x9B
    107B:	4788      	cmp        x, #-0x64B9
    107C:	FBF0      	bne        -0x5 <___libgatt_lib_db_4670+0x43:0x1077[p]>
    107D:	EC00      	**prefx    0xEC
    107E:	3F14      	ld         al, #-0x13C1
    107F:	FA26      	st         al, @(-0x6, x)
    1080:	0200      	**prefx    0x2
    1081:	3D14      	ld         al, #+0x23D
    1082:	FD26      	st         al, @(-0x3, x)
    1083:	EC00      	**prefx    0xEC
    1084:	3B14      	ld         al, #-0x13C5
    1085:	1E26      	st         al, @(+0x1E, x)
    1086:	0200      	**prefx    0x2
    1087:	3D14      	ld         al, #+0x23D
    1088:	2126      	st         al, @(+0x21, x)
    1089:	0400      	**prefx    0x4
    108A:	0714      	ld         al, #+0x407
    108B:	9B00      	**prefx    0x9B
    108C:	2025      	st         al, @0x9B20 <DATA_RADIODATA_START>
    108D:	0D00      	**prefx    0xD
    108E:	0814      	ld         al, #+0xD08
    108F:	9B00      	**prefx    0x9B
    1090:	2225      	st         al, @0x9B22 <DATA_RADIODATA_START+0x2>
    1091:	0500      	**prefx    0x5
    1092:	2F14      	ld         al, #+0x52F
    1093:	9B00      	**prefx    0x9B
    1094:	2425      	st         al, @0x9B24 <DATA_RADIODATA_START+0x4>
    1095:	0E00      	**prefx    0xE
    1096:	1014      	ld         al, #+0xE10
    1097:	9B00      	**prefx    0x9B
    1098:	2625      	st         al, @0x9B26 <DATA_RADIODATA_START+0x6>
    1099:	2134      	add        al, #+0x21
    109A:	9B00      	**prefx    0x9B
    109B:	2725      	st         al, @0x9B27 <DATA_RADIODATA_START+0x7>
    109C:	010F      	leave      #+0x1

0x0000109D <___libgatt_lib_db_4673>:
    109D:	010B      	enter      #+0x1
    109E:	0100      	**prefx    0x1
    109F:	E900      	**prefx    0xE9
    10A0:	989C      	bsr        +0xE898 <___libgatt_lib_db_4505:0xF938[p]>
    10A1:	E199      	tst        @0xFFE1 <register al>
    10A2:	06F0      	bne        +0x6 <___libgatt_lib_db_4673+0xB:0x10A8[p]>
    10A3:	0100      	**prefx    0x1
    10A4:	A800      	**prefx    0xA8
    10A5:	549C      	bsr        +0xA854 <___libgatt_lib_db_4006:0xB8F9[p]>
    10A6:	E199      	tst        @0xFFE1 <register al>
    10A7:	04F4      	beq        +0x4 <___libgatt_lib_db_4673+0xE:0x10AB[p]>
    10A8:	E800      	**prefx    0xE8
    10A9:	8214      	ld         al, #-0x187E
    10AA:	0027      	st         al, @(0x0, y)
    10AB:	010F      	leave      #+0x1

0x000010AC <___libgatt_lib_db_4675>:
    10AC:	1117      	ld         al, @(+0x11, y)
    10AD:	0A84      	cmp        al, #+0xA
    10AE:	02F0      	bne        +0x2 <___libgatt_lib_db_4675+0x4:0x10B0[p]>
    10AF:	130F      	leave      #+0x13
    10B0:	00E2      	bra        0x0, x

0x000010B1 <___libgatt_lib_db_4694>:
    10B1:	020B      	enter      #+0x2
    10B2:	F900      	**prefx    0xF9
    10B3:	4215      	ld         al, @0xF942 <___libgatt_lib_db_2749>
    10B4:	0027      	st         al, @(0x0, y)
    10B5:	1300      	**prefx    0x13
    10B6:	7B14      	ld         al, #+0x137B
    10B7:	F900      	**prefx    0xF9
    10B8:	4225      	st         al, @0xF942 <___libgatt_lib_db_2749>
    10B9:	F700      	**prefx    0xF7
    10BA:	2815      	ld         al, @0xF728 <___libgatt_lib_db_3263>
    10BB:	F200      	**prefx    0xF2
    10BC:	FFC4      	and        al, #0xF1FF
    10BD:	F700      	**prefx    0xF7
    10BE:	2825      	st         al, @0xF728 <___libgatt_lib_db_3263>
    10BF:	F700      	**prefx    0xF7
    10C0:	2C15      	ld         al, @0xF72C <___libgatt_lib_db_3267>
    10C1:	FD00      	**prefx    0xFD
    10C2:	FFC4      	and        al, #0xFCFF
    10C3:	F700      	**prefx    0xF7
    10C4:	2C25      	st         al, @0xF72C <___libgatt_lib_db_3267>
    10C5:	3400      	**prefx    0x34
    10C6:	B115      	ld         al, @0x33B1 <patch_pending_mode+0x5>
    10C7:	F900      	**prefx    0xF9
    10C8:	3B34      	add        al, #-0x6C5
    10C9:	FF27      	st         al, @(-0x1, y)
    10CA:	FF9F      	bsr        @(-0x1, y)
    10CB:	9500      	**prefx    0x95
    10CC:	2225      	st         al, @0x9522 <___libgatt_lib_db_95+0x9>
    10CD:	2784      	cmp        al, #+0x27
    10CE:	0328      	ble        +0x3 <___libgatt_lib_db_4694+0x20:0x10D1[p]>
    10CF:	0014      	ld         al, #+0x0
    10D0:	02E0      	bra        +0x2 <___libgatt_lib_db_4694+0x21:0x10D2[p]>
    10D1:	0214      	ld         al, #+0x2
    10D2:	F400      	**prefx    0xF4
    10D3:	9D19      	ld         x, @0xF39D <___libgatt_lib_db_3238>
    10D4:	09A0      	asl        #0x9
    10D5:	F200      	**prefx    0xF2
    10D6:	FFC8      	and        x, #0xF1FF
    10D7:	E1B9      	or         x, @0xFFE1 <register al>
    10D8:	F400      	**prefx    0xF4
    10D9:	9D29      	st         x, @0xF39D <___libgatt_lib_db_3238>
    10DA:	9500      	**prefx    0x95
    10DB:	1611      	ld         ah, @0x9516 <___libgatt_lib_db_91+0x1>
    10DC:	F200      	**prefx    0xF2
    10DD:	FFC0      	and        ah, #0xF1FF
    10DE:	E1B1      	or         ah, @0xFFE1 <register al>
    10DF:	9500      	**prefx    0x95
    10E0:	1621      	st         ah, @0x9516 <___libgatt_lib_db_91+0x1>
    10E1:	9500      	**prefx    0x95
    10E2:	1C11      	ld         ah, @0x951C <___libgatt_lib_db_95+0x3>
    10E3:	F200      	**prefx    0xF2
    10E4:	FFC0      	and        ah, #0xF1FF
    10E5:	E0B5      	or         al, @0xFFE0 <register ah>
    10E6:	9500      	**prefx    0x95
    10E7:	1C25      	st         al, @0x951C <___libgatt_lib_db_95+0x3>
    10E8:	0017      	ld         al, @(0x0, y)
    10E9:	F900      	**prefx    0xF9
    10EA:	4225      	st         al, @0xF942 <___libgatt_lib_db_2749>
    10EB:	020F      	leave      #+0x2

0x000010EC <___libgatt_lib_db_4693>:
    10EC:	010B      	enter      #+0x1
    10ED:	0017      	ld         al, @(0x0, y)
    10EE:	F400      	**prefx    0xF4
    10EF:	EA84      	cmp        al, #-0xC16
    10F0:	05F4      	beq        +0x5 <___libgatt_lib_db_4693+0x9:0x10F5[p]>
    10F1:	F400      	**prefx    0xF4
    10F2:	0784      	cmp        al, #-0xBF9
    10F3:	11F0      	bne        +0x11 <___libgatt_lib_db_4693+0x18:0x1104[p]>
    10F4:	0FE0      	bra        +0xF <___libgatt_lib_db_4693+0x17:0x1103[p]>
    10F5:	F400      	**prefx    0xF4
    10F6:	FE14      	ld         al, #-0xC02
    10F7:	0027      	st         al, @(0x0, y)
    10F8:	3400      	**prefx    0x34
    10F9:	B119      	ld         x, @0x33B1 <patch_pending_mode+0x5>
    10FA:	F900      	**prefx    0xF9
    10FB:	3E38      	add        x, #-0x6C2
    10FC:	9500      	**prefx    0x95
    10FD:	2215      	ld         al, @0x9522 <___libgatt_lib_db_95+0x9>
    10FE:	0410      	ld         ah, #+0x4
    10FF:	FF2B      	st         x, @(-0x1, y)
    1100:	FF9F      	bsr        @(-0x1, y)
    1101:	E199      	tst        @0xFFE1 <register al>
    1102:	02F4      	beq        +0x2 <___libgatt_lib_db_4693+0x18:0x1104[p]>
    1103:	AE9C      	bsr        -0x52 <___libgatt_lib_db_4694:0x10B1[p]>
    1104:	010F      	leave      #+0x1

0x00001105 <___libgatt_lib_db_4691>:
    1105:	020B      	enter      #+0x2
    1106:	F900      	**prefx    0xF9
    1107:	4215      	ld         al, @0xF942 <___libgatt_lib_db_2749>
    1108:	0027      	st         al, @(0x0, y)
    1109:	1300      	**prefx    0x13
    110A:	7B14      	ld         al, #+0x137B
    110B:	F900      	**prefx    0xF9
    110C:	4225      	st         al, @0xF942 <___libgatt_lib_db_2749>
    110D:	FA00      	**prefx    0xFA
    110E:	9215      	ld         al, @0xF992 <___libgatt_lib_db_738>
    110F:	02B4      	or         al, #+0x2
    1110:	FA00      	**prefx    0xFA
    1111:	9225      	st         al, @0xF992 <___libgatt_lib_db_738>
    1112:	0114      	ld         al, #+0x1
    1113:	0200      	**prefx    0x2
    1114:	1F9C      	bsr        +0x21F <___libgatt_lib_db_4708:0x1333[p]>
    1115:	9900      	**prefx    0x99
    1116:	4825      	st         al, @0x9948 <cached_vbg>
    1117:	FA00      	**prefx    0xFA
    1118:	9215      	ld         al, @0xF992 <___libgatt_lib_db_738>
    1119:	FDC4      	and        al, #0xFFFD
    111A:	FA00      	**prefx    0xFA
    111B:	9225      	st         al, @0xF992 <___libgatt_lib_db_738>
    111C:	0017      	ld         al, @(0x0, y)
    111D:	F900      	**prefx    0xF9
    111E:	4225      	st         al, @0xF942 <___libgatt_lib_db_2749>
    111F:	F300      	**prefx    0xF3
    1120:	2E14      	ld         al, #-0xCD2
    1121:	0127      	st         al, @(+0x1, y)
    1122:	020F      	leave      #+0x2

0x00001123 <___libgatt_lib_db_4692>:
    1123:	010B      	enter      #+0x1
    1124:	0117      	ld         al, @(+0x1, y)
    1125:	F825      	st         al, @0xFFF8 <(scratchpad)>
    1126:	08F0      	bne        +0x8 <___libgatt_lib_db_4692+0xB:0x112E[p]>
    1127:	A000      	**prefx    0xA0
    1128:	9D15      	ld         al, @0x9F9D <DATA_CSTORE_START+0x19>
    1129:	0284      	cmp        al, #+0x2
    112A:	04F0      	bne        +0x4 <___libgatt_lib_db_4692+0xB:0x112E[p]>
    112B:	9500      	**prefx    0x95
    112C:	1C18      	ld         x, #-0x6AE4
    112D:	03E0      	bra        +0x3 <___libgatt_lib_db_4692+0xD:0x1130[p]>
    112E:	9500      	**prefx    0x95
    112F:	1618      	ld         x, #-0x6AEA
    1130:	1300      	**prefx    0x13
    1131:	7B14      	ld         al, #+0x137B
    1132:	F900      	**prefx    0xF9
    1133:	4225      	st         al, @0xF942 <___libgatt_lib_db_2749>
    1134:	0614      	ld         al, #+0x6
    1135:	F400      	**prefx    0xF4
    1136:	9D10      	ld         ah, #-0xC63
    1137:	FD09      	bc2        
    1138:	F899      	tst        @0xFFF8 <(scratchpad)>
    1139:	05F4      	beq        +0x5 <___libgatt_lib_db_4692+0x1B:0x113E[p]>
    113A:	F000      	**prefx    0xF0
    113B:	3515      	ld         al, @0xF035 <___libgatt_lib_db_1169>
    113C:	FDC4      	and        al, #0xFFFD
    113D:	0AE0      	bra        +0xA <___libgatt_lib_db_4692+0x24:0x1147[p]>
    113E:	2014      	ld         al, #+0x20
    113F:	F000      	**prefx    0xF0
    1140:	0A10      	ld         ah, #-0xFF6
    1141:	9C00      	**prefx    0x9C
    1142:	A018      	ld         x, #-0x6460
    1143:	FD09      	bc2        
    1144:	F000      	**prefx    0xF0
    1145:	3515      	ld         al, @0xF035 <___libgatt_lib_db_1169>
    1146:	02B4      	or         al, #+0x2
    1147:	F000      	**prefx    0xF0
    1148:	3525      	st         al, @0xF035 <___libgatt_lib_db_1169>
    1149:	0014      	ld         al, #+0x0
    114A:	F900      	**prefx    0xF9
    114B:	4225      	st         al, @0xF942 <___libgatt_lib_db_2749>
    114C:	F815      	ld         al, @0xFFF8 <(scratchpad)>
    114D:	9500      	**prefx    0x95
    114E:	1525      	st         al, @0x9515 <___libgatt_lib_db_91>
    114F:	030F      	leave      #+0x3
    1150:	010F      	leave      #+0x1

0x00001151 <___libgatt_lib_db_4214>:
    1151:	070B      	enter      #+0x7
    1152:	F900      	**prefx    0xF9
    1153:	4211      	ld         ah, @0xF942 <___libgatt_lib_db_2749>
    1154:	0323      	st         ah, @(+0x3, y)
    1155:	1300      	**prefx    0x13
    1156:	7B14      	ld         al, #+0x137B
    1157:	F900      	**prefx    0xF9
    1158:	4225      	st         al, @0xF942 <___libgatt_lib_db_2749>
    1159:	FA00      	**prefx    0xFA
    115A:	9215      	ld         al, @0xF992 <___libgatt_lib_db_738>
    115B:	01B4      	or         al, #+0x1
    115C:	FA00      	**prefx    0xFA
    115D:	9225      	st         al, @0xF992 <___libgatt_lib_db_738>
    115E:	3400      	**prefx    0x34
    115F:	B311      	ld         ah, @0x33B3 <enable_lo_offset_adc_update+0x1>
    1160:	FB00      	**prefx    0xFB
    1161:	5330      	add        ah, #-0x4AD
    1162:	0214      	ld         al, #+0x2
    1163:	FF23      	st         ah, @(-0x1, y)
    1164:	FF9F      	bsr        @(-0x1, y)
    1165:	0010      	ld         ah, #+0x0
    1166:	0523      	st         ah, @(+0x5, y)
    1167:	0423      	st         ah, @(+0x4, y)
    1168:	3400      	**prefx    0x34
    1169:	B311      	ld         ah, @0x33B3 <enable_lo_offset_adc_update+0x1>
    116A:	FB00      	**prefx    0xFB
    116B:	5A30      	add        ah, #-0x4A6
    116C:	0214      	ld         al, #+0x2
    116D:	FF23      	st         ah, @(-0x1, y)
    116E:	FF9F      	bsr        @(-0x1, y)
    116F:	0537      	add        al, @(+0x5, y)
    1170:	0527      	st         al, @(+0x5, y)
    1171:	0413      	ld         ah, @(+0x4, y)
    1172:	0130      	add        ah, #+0x1
    1173:	0423      	st         ah, @(+0x4, y)
    1174:	0480      	cmp        ah, #+0x4
    1175:	F3F0      	bne        -0xD <___libgatt_lib_db_4214+0x17:0x1168[p]>
    1176:	FA00      	**prefx    0xFA
    1177:	9215      	ld         al, @0xF992 <___libgatt_lib_db_738>
    1178:	FEC4      	and        al, #0xFFFE
    1179:	FA00      	**prefx    0xFA
    117A:	9225      	st         al, @0xF992 <___libgatt_lib_db_738>
    117B:	3400      	**prefx    0x34
    117C:	B315      	ld         al, @0x33B3 <enable_lo_offset_adc_update+0x1>
    117D:	FB00      	**prefx    0xFB
    117E:	9734      	add        al, #-0x569
    117F:	FF27      	st         al, @(-0x1, y)
    1180:	FF9F      	bsr        @(-0x1, y)
    1181:	0313      	ld         ah, @(+0x3, y)
    1182:	F900      	**prefx    0xF9
    1183:	4221      	st         ah, @0xF942 <___libgatt_lib_db_2749>
    1184:	A000      	**prefx    0xA0
    1185:	BE15      	ld         al, @0x9FBE <DATA_CSTORE_START+0x3A>
    1186:	9400      	**prefx    0x94
    1187:	4525      	st         al, @0x9445 <build_identifier_integer+0x1>
    1188:	F984      	cmp        al, #-0x7
    1189:	0524      	bge        +0x5 <___libgatt_lib_db_4214+0x3D:0x118E[p]>
    118A:	F914      	ld         al, #-0x7
    118B:	9400      	**prefx    0x94
    118C:	4525      	st         al, @0x9445 <build_identifier_integer+0x1>
    118D:	06E0      	bra        +0x6 <___libgatt_lib_db_4214+0x42:0x1193[p]>
    118E:	0784      	cmp        al, #+0x7
    118F:	0428      	ble        +0x4 <___libgatt_lib_db_4214+0x42:0x1193[p]>
    1190:	0718      	ld         x, #+0x7
    1191:	9400      	**prefx    0x94
    1192:	4529      	st         x, @0x9445 <build_identifier_integer+0x1>
    1193:	9400      	**prefx    0x94
    1194:	4511      	ld         ah, @0x9445 <build_identifier_integer+0x1>
    1195:	0223      	st         ah, @(+0x2, y)
    1196:	0F17      	ld         al, @(+0xF, y)
    1197:	FF27      	st         al, @(-0x1, y)
    1198:	0F1B      	ld         x, @(+0xF, y)
    1199:	0513      	ld         ah, @(+0x5, y)
    119A:	0009      	**unsigned
    119B:	02A4      	lsr        #0x2
    119C:	E015      	ld         al, @0xFFE0 <register ah>
    119D:	0009      	**unsigned
    119E:	0200      	**prefx    0x2
    119F:	BE90      	umult      #0x1BE
    11A0:	FB25      	st         al, @0xFFFB <(scratchpad)>
    11A1:	FA21      	st         ah, @0xFFFA <(scratchpad)>
    11A2:	E311      	ld         ah, @0xFFE3 <register uxl>
    11A3:	0009      	**unsigned
    11A4:	01A4      	lsr        #0x1
    11A5:	F921      	st         ah, @0xFFF9 <(scratchpad)>
    11A6:	0018      	ld         x, #+0x0
    11A7:	F829      	st         x, @0xFFF8 <(scratchpad)>
    11A8:	FB15      	ld         al, @0xFFFB <(scratchpad)>
    11A9:	FA11      	ld         ah, @0xFFFA <(scratchpad)>
    11AA:	F935      	add        al, @0xFFF9 <(scratchpad)>
    11AB:	F841      	addc       ah, @0xFFF8 <(scratchpad)>
    11AC:	0127      	st         al, @(+0x1, y)
    11AD:	0023      	st         ah, @(0x0, y)
    11AE:	0014      	ld         al, #+0x0
    11AF:	FF13      	ld         ah, @(-0x1, y)
    11B0:	7C00      	**prefx    0x7C
    11B1:	C19C      	bsr        +0x7BC1 <___libgatt_lib_db_3943:0x8D72[p]>
    11B2:	0213      	ld         ah, @(+0x2, y)
    11B3:	0200      	**prefx    0x2
    11B4:	F030      	add        ah, #+0x1F0
    11B5:	E151      	sub        ah, @0xFFE1 <register al>
    11B6:	9400      	**prefx    0x94
    11B7:	4521      	st         ah, @0x9445 <build_identifier_integer+0x1>
    11B8:	D880      	cmp        ah, #-0x28
    11B9:	0524      	bge        +0x5 <___libgatt_lib_db_4214+0x6D:0x11BE[p]>
    11BA:	D810      	ld         ah, #-0x28
    11BB:	9400      	**prefx    0x94
    11BC:	4521      	st         ah, @0x9445 <build_identifier_integer+0x1>
    11BD:	06E0      	bra        +0x6 <___libgatt_lib_db_4214+0x72:0x11C3[p]>
    11BE:	6E80      	cmp        ah, #+0x6E
    11BF:	0428      	ble        +0x4 <___libgatt_lib_db_4214+0x72:0x11C3[p]>
    11C0:	6E14      	ld         al, #+0x6E
    11C1:	9400      	**prefx    0x94
    11C2:	4525      	st         al, @0x9445 <build_identifier_integer+0x1>
    11C3:	3400      	**prefx    0x34
    11C4:	0615      	ld         al, @0x3406 <___libgatt_lib_db_4667+0x1>
    11C5:	9C84      	cmp        al, #-0x64
    11C6:	05F0      	bne        +0x5 <___libgatt_lib_db_4214+0x7A:0x11CB[p]>
    11C7:	9400      	**prefx    0x94
    11C8:	4519      	ld         x, @0x9445 <build_identifier_integer+0x1>
    11C9:	3400      	**prefx    0x34
    11CA:	0629      	st         x, @0x3406 <___libgatt_lib_db_4667+0x1>
    11CB:	F000      	**prefx    0xF0
    11CC:	3515      	ld         al, @0xF035 <___libgatt_lib_db_1169>
    11CD:	02C4      	and        al, #0x2
    11CE:	2FF0      	bne        +0x2F <___libgatt_lib_db_4214+0xAC:0x11FD[p]>
    11CF:	9400      	**prefx    0x94
    11D0:	4519      	ld         x, @0x9445 <build_identifier_integer+0x1>
    11D1:	3400      	**prefx    0x34
    11D2:	0611      	ld         ah, @0x3406 <___libgatt_lib_db_4667+0x1>
    11D3:	E015      	ld         al, @0xFFE0 <register ah>
    11D4:	FD34      	add        al, #-0x3
    11D5:	E189      	cmp        x, @0xFFE1 <register al>
    11D6:	04E4      	blt        +0x4 <___libgatt_lib_db_4214+0x89:0x11DA[p]>
    11D7:	0330      	add        ah, #+0x3
    11D8:	E089      	cmp        x, @0xFFE0 <register ah>
    11D9:	2428      	ble        +0x24 <___libgatt_lib_db_4214+0xAC:0x11FD[p]>
    11DA:	0100      	**prefx    0x1
    11DB:	6810      	ld         ah, #+0x168
    11DC:	F700      	**prefx    0xF7
    11DD:	8921      	st         ah, @0xF689 <___libgatt_lib_db_1907>
    11DE:	0300      	**prefx    0x3
    11DF:	B014      	ld         al, #+0x2B0
    11E0:	F700      	**prefx    0xF7
    11E1:	8A25      	st         al, @0xF68A <___libgatt_lib_db_1906>
    11E2:	F000      	**prefx    0xF0
    11E3:	2A15      	ld         al, @0xF02A <___libgatt_lib_db_918>
    11E4:	FF00      	**prefx    0xFF
    11E5:	00C4      	and        al, #0xFF00
    11E6:	0100      	**prefx    0x1
    11E7:	BFB4      	or         al, #+0xBF
    11E8:	F000      	**prefx    0xF0
    11E9:	2A25      	st         al, @0xF02A <___libgatt_lib_db_918>
    11EA:	9400      	**prefx    0x94
    11EB:	4511      	ld         ah, @0x9445 <build_identifier_integer+0x1>
    11EC:	3400      	**prefx    0x34
    11ED:	0621      	st         ah, @0x3406 <___libgatt_lib_db_4667+0x1>
    11EE:	0118      	ld         x, #+0x1
    11EF:	3400      	**prefx    0x34
    11F0:	B229      	st         x, @0x33B2 <enable_lo_offset_adc_update>
    11F1:	E230      	add        ah, #-0x1E
    11F2:	10A4      	asr        #0x10
    11F3:	0394      	sdiv       #+0x3
    11F4:	C084      	cmp        al, #-0x40
    11F5:	0224      	bge        +0x2 <___libgatt_lib_db_4214+0xA6:0x11F7[p]>
    11F6:	C014      	ld         al, #-0x40
    11F7:	3F84      	cmp        al, #+0x3F
    11F8:	0228      	ble        +0x2 <___libgatt_lib_db_4214+0xA9:0x11FA[p]>
    11F9:	3F14      	ld         al, #+0x3F
    11FA:	F700      	**prefx    0xF7
    11FB:	8D25      	st         al, @0xF68D <___libgatt_lib_db_1875>
    11FC:	11E0      	bra        +0x11 <___libgatt_lib_db_4214+0xBC:0x120D[p]>
    11FD:	F000      	**prefx    0xF0
    11FE:	2A15      	ld         al, @0xF02A <___libgatt_lib_db_918>
    11FF:	FF00      	**prefx    0xFF
    1200:	00C4      	and        al, #0xFF00
    1201:	37B4      	or         al, #+0x37
    1202:	F000      	**prefx    0xF0
    1203:	2A25      	st         al, @0xF02A <___libgatt_lib_db_918>
    1204:	0010      	ld         ah, #+0x0
    1205:	3400      	**prefx    0x34
    1206:	B221      	st         ah, @0x33B2 <enable_lo_offset_adc_update>
    1207:	F700      	**prefx    0xF7
    1208:	8921      	st         ah, @0xF689 <___libgatt_lib_db_1907>
    1209:	0400      	**prefx    0x4
    120A:	FF14      	ld         al, #+0x3FF
    120B:	F700      	**prefx    0xF7
    120C:	8A25      	st         al, @0xF68A <___libgatt_lib_db_1906>
    120D:	9400      	**prefx    0x94
    120E:	4515      	ld         al, @0x9445 <build_identifier_integer+0x1>
    120F:	3284      	cmp        al, #+0x32
    1210:	1A28      	ble        +0x1A <___libgatt_lib_db_4214+0xD9:0x122A[p]>
    1211:	F600      	**prefx    0xF6
    1212:	3D15      	ld         al, @0xF63D <___libgatt_lib_db_1819>
    1213:	17EC      	bmi        +0x17 <___libgatt_lib_db_4214+0xD9:0x122A[p]>
    1214:	9C00      	**prefx    0x9C
    1215:	9919      	ld         x, @0x9B99 <DATA_RCLUTS_START+0x19>
    1216:	FE00      	**prefx    0xFE
    1217:	FFC8      	and        x, #0xFDFF
    1218:	9C00      	**prefx    0x9C
    1219:	9929      	st         x, @0x9B99 <DATA_RCLUTS_START+0x19>
    121A:	FF00      	**prefx    0xFF
    121B:	4B10      	ld         ah, #-0xB5
    121C:	F600      	**prefx    0xF6
    121D:	5021      	st         ah, @0xF650 <___libgatt_lib_db_1806>
    121E:	F600      	**prefx    0xF6
    121F:	3D15      	ld         al, @0xF63D <___libgatt_lib_db_1819>
    1220:	8000      	**prefx    0x80
    1221:	00B4      	or         al, #-0x8000
    1222:	F600      	**prefx    0xF6
    1223:	3D25      	st         al, @0xF63D <___libgatt_lib_db_1819>
    1224:	F600      	**prefx    0xF6
    1225:	3E15      	ld         al, @0xF63E <___libgatt_lib_db_1820>
    1226:	8000      	**prefx    0x80
    1227:	00B4      	or         al, #-0x8000
    1228:	F600      	**prefx    0xF6
    1229:	3E25      	st         al, @0xF63E <___libgatt_lib_db_1820>
    122A:	9400      	**prefx    0x94
    122B:	4515      	ld         al, @0x9445 <build_identifier_integer+0x1>
    122C:	2C84      	cmp        al, #+0x2C
    122D:	1620      	bgt        +0x16 <___libgatt_lib_db_4214+0xF2:0x1243[p]>
    122E:	F600      	**prefx    0xF6
    122F:	3D15      	ld         al, @0xF63D <___libgatt_lib_db_1819>
    1230:	13E8      	bpl        +0x13 <___libgatt_lib_db_4214+0xF2:0x1243[p]>
    1231:	F600      	**prefx    0xF6
    1232:	3D15      	ld         al, @0xF63D <___libgatt_lib_db_1819>
    1233:	8000      	**prefx    0x80
    1234:	FFC4      	and        al, #0x7FFF
    1235:	F600      	**prefx    0xF6
    1236:	3D25      	st         al, @0xF63D <___libgatt_lib_db_1819>
    1237:	F600      	**prefx    0xF6
    1238:	3E15      	ld         al, @0xF63E <___libgatt_lib_db_1820>
    1239:	8000      	**prefx    0x80
    123A:	FFC4      	and        al, #0x7FFF
    123B:	F600      	**prefx    0xF6
    123C:	3E25      	st         al, @0xF63E <___libgatt_lib_db_1820>
    123D:	9C00      	**prefx    0x9C
    123E:	9915      	ld         al, @0x9B99 <DATA_RCLUTS_START+0x19>
    123F:	0200      	**prefx    0x2
    1240:	00B4      	or         al, #+0x200
    1241:	9C00      	**prefx    0x9C
    1242:	9925      	st         al, @0x9B99 <DATA_RCLUTS_START+0x19>
    1243:	9400      	**prefx    0x94
    1244:	4515      	ld         al, @0x9445 <build_identifier_integer+0x1>
    1245:	3400      	**prefx    0x34
    1246:	0755      	sub        al, @0x3407 <___libgatt_lib_db_4667+0x2>
    1247:	E199      	tst        @0xFFE1 <register al>
    1248:	02E8      	bpl        +0x2 <___libgatt_lib_db_4214+0xF9:0x124A[p]>
    1249:	0074      	nadd       al, #+0x0
    124A:	0584      	cmp        al, #+0x5
    124B:	572C      	bcz        +0x57 <___libgatt_lib_db_4214+0x151:0x12A2[p]>
    124C:	9400      	**prefx    0x94
    124D:	4519      	ld         x, @0x9445 <build_identifier_integer+0x1>
    124E:	FA29      	st         x, @0xFFFA <(scratchpad)>
    124F:	3400      	**prefx    0x34
    1250:	0729      	st         x, @0x3407 <___libgatt_lib_db_4667+0x2>
    1251:	A000      	**prefx    0xA0
    1252:	8811      	ld         ah, @0x9F88 <DATA_CSTORE_START+0x4>
    1253:	FB21      	st         ah, @0xFFFB <(scratchpad)>
    1254:	A000      	**prefx    0xA0
    1255:	C415      	ld         al, @0x9FC4 <DATA_CSTORE_START+0x40>
    1256:	04F0      	bne        +0x4 <___libgatt_lib_db_4214+0x109:0x125A[p]>
    1257:	A000      	**prefx    0xA0
    1258:	C599      	tst        @0x9FC5 <DATA_CSTORE_START+0x41>
    1259:	42F4      	beq        +0x42 <___libgatt_lib_db_4214+0x14A:0x129B[p]>
    125A:	FA19      	ld         x, @0xFFFA <(scratchpad)>
    125B:	E189      	cmp        x, @0xFFE1 <register al>
    125C:	0424      	bge        +0x4 <___libgatt_lib_db_4214+0x10F:0x1260[p]>
    125D:	A000      	**prefx    0xA0
    125E:	C515      	ld         al, @0x9FC5 <DATA_CSTORE_START+0x41>
    125F:	34E0      	bra        +0x34 <___libgatt_lib_db_4214+0x142:0x1293[p]>
    1260:	0010      	ld         ah, #+0x0
    1261:	F821      	st         ah, @0xFFF8 <(scratchpad)>
    1262:	F815      	ld         al, @0xFFF8 <(scratchpad)>
    1263:	2034      	add        al, #+0x20
    1264:	01A0      	asl        #0x1
    1265:	A000      	**prefx    0xA0
    1266:	8434      	add        al, #-0x607C
    1267:	F925      	st         al, @0xFFF9 <(scratchpad)>
    1268:	F815      	ld         al, @0xFFF8 <(scratchpad)>
    1269:	01A0      	asl        #0x1
    126A:	E119      	ld         x, @0xFFE1 <register al>
    126B:	FA11      	ld         ah, @0xFFFA <(scratchpad)>
    126C:	A000      	**prefx    0xA0
    126D:	C482      	cmp        ah, @(-0x603C, x)
    126E:	04E4      	blt        +0x4 <___libgatt_lib_db_4214+0x121:0x1272[p]>
    126F:	A000      	**prefx    0xA0
    1270:	C682      	cmp        ah, @(-0x603A, x)
    1271:	0EE4      	blt        +0xE <___libgatt_lib_db_4214+0x12E:0x127F[p]>
    1272:	F815      	ld         al, @0xFFF8 <(scratchpad)>
    1273:	0134      	add        al, #+0x1
    1274:	F825      	st         al, @0xFFF8 <(scratchpad)>
    1275:	2034      	add        al, #+0x20
    1276:	01A0      	asl        #0x1
    1277:	E119      	ld         x, @0xFFE1 <register al>
    1278:	A000      	**prefx    0xA0
    1279:	8438      	add        x, #-0x607C
    127A:	F811      	ld         ah, @0xFFF8 <(scratchpad)>
    127B:	0580      	cmp        ah, #+0x5
    127C:	E6F0      	bne        -0x1A <___libgatt_lib_db_4214+0x111:0x1262[p]>
    127D:	FF16      	ld         al, @(-0x1, x)
    127E:	15E0      	bra        +0x15 <___libgatt_lib_db_4214+0x142:0x1293[p]>
    127F:	F919      	ld         x, @0xFFF9 <(scratchpad)>
    1280:	001A      	ld         x, @(0x0, x)
    1281:	FF2B      	st         x, @(-0x1, y)
    1282:	F919      	ld         x, @0xFFF9 <(scratchpad)>
    1283:	011A      	ld         x, @(+0x1, x)
    1284:	F829      	st         x, @0xFFF8 <(scratchpad)>
    1285:	FA11      	ld         ah, @0xFFFA <(scratchpad)>
    1286:	FF53      	sub        ah, @(-0x1, y)
    1287:	FA21      	st         ah, @0xFFFA <(scratchpad)>
    1288:	F919      	ld         x, @0xFFF9 <(scratchpad)>
    1289:	0316      	ld         al, @(+0x3, x)
    128A:	F855      	sub        al, @0xFFF8 <(scratchpad)>
    128B:	FA91      	smult      @0xFFFA <(scratchpad)>
    128C:	0212      	ld         ah, @(+0x2, x)
    128D:	FF53      	sub        ah, @(-0x1, y)
    128E:	F921      	st         ah, @0xFFF9 <(scratchpad)>
    128F:	E111      	ld         ah, @0xFFE1 <register al>
    1290:	10A4      	asr        #0x10
    1291:	F995      	sdiv       @0xFFF9 <(scratchpad)>
    1292:	F835      	add        al, @0xFFF8 <(scratchpad)>
    1293:	FB35      	add        al, @0xFFFB <(scratchpad)>
    1294:	3F84      	cmp        al, #+0x3F
    1295:	0228      	ble        +0x2 <___libgatt_lib_db_4214+0x146:0x1297[p]>
    1296:	3F14      	ld         al, #+0x3F
    1297:	FB25      	st         al, @0xFFFB <(scratchpad)>
    1298:	03E8      	bpl        +0x3 <___libgatt_lib_db_4214+0x14A:0x129B[p]>
    1299:	0014      	ld         al, #+0x0
    129A:	FB25      	st         al, @0xFFFB <(scratchpad)>
    129B:	3400      	**prefx    0x34
    129C:	B311      	ld         ah, @0x33B3 <enable_lo_offset_adc_update+0x1>
    129D:	F900      	**prefx    0xF9
    129E:	9630      	add        ah, #-0x76A
    129F:	FB15      	ld         al, @0xFFFB <(scratchpad)>
    12A0:	FF23      	st         ah, @(-0x1, y)
    12A1:	FF9F      	bsr        @(-0x1, y)
    12A2:	1017      	ld         al, @(+0x10, y)
    12A3:	F500      	**prefx    0xF5
    12A4:	A384      	cmp        al, #-0xB5D
    12A5:	06F0      	bne        +0x6 <___libgatt_lib_db_4214+0x15A:0x12AB[p]>
    12A6:	FE00      	**prefx    0xFE
    12A7:	0A9C      	bsr        -0x1F6 <___libgatt_lib_db_4694:0x10B1[p]>
    12A8:	F500      	**prefx    0xF5
    12A9:	A510      	ld         ah, #-0xB5B
    12AA:	1023      	st         ah, @(+0x10, y)
    12AB:	110F      	leave      #+0x11
    12AC:	070F      	leave      #+0x7

0x000012AD <___libgatt_lib_db_4706>:
    12AD:	070B      	enter      #+0x7
    12AE:	0B17      	ld         al, @(+0xB, y)
    12AF:	04F4      	beq        +0x4 <___libgatt_lib_db_4706+0x6:0x12B3[p]>
    12B0:	0014      	ld         al, #+0x0
    12B1:	0100      	**prefx    0x1
    12B2:	80E0      	bra        +0x80 <UART_SLOW_RATE_2K4+0x72:0x1332[p]>
    12B3:	0E17      	ld         al, @(+0xE, y)
    12B4:	7BF4      	beq        +0x7B <UART_SLOW_RATE_2K4+0x6F:0x132F[p]>
    12B5:	3400      	**prefx    0x34
    12B6:	B415      	ld         al, @0x33B4 <enable_lo_offset_adc_update+0x2>
    12B7:	F300      	**prefx    0xF3
    12B8:	F234      	add        al, #-0xD0E
    12B9:	FF27      	st         al, @(-0x1, y)
    12BA:	FF9F      	bsr        @(-0x1, y)
    12BB:	0527      	st         al, @(+0x5, y)
    12BC:	3400      	**prefx    0x34
    12BD:	B411      	ld         ah, @0x33B4 <enable_lo_offset_adc_update+0x2>
    12BE:	F900      	**prefx    0xF9
    12BF:	4D30      	add        ah, #-0x6B3
    12C0:	FF23      	st         ah, @(-0x1, y)
    12C1:	FF9F      	bsr        @(-0x1, y)
    12C2:	1300      	**prefx    0x13
    12C3:	7B10      	ld         ah, #+0x137B
    12C4:	F900      	**prefx    0xF9
    12C5:	4221      	st         ah, @0xF942 <___libgatt_lib_db_2749>
    12C6:	F400      	**prefx    0xF4
    12C7:	9E15      	ld         al, @0xF39E <___libgatt_lib_db_3239>
    12C8:	01B4      	or         al, #+0x1
    12C9:	F400      	**prefx    0xF4
    12CA:	9E25      	st         al, @0xF39E <___libgatt_lib_db_3239>
    12CB:	F400      	**prefx    0xF4
    12CC:	A215      	ld         al, @0xF3A2 <___libgatt_lib_db_3243>
    12CD:	F3C4      	and        al, #0xFFF3
    12CE:	F400      	**prefx    0xF4
    12CF:	A225      	st         al, @0xF3A2 <___libgatt_lib_db_3243>
    12D0:	F400      	**prefx    0xF4
    12D1:	9C15      	ld         al, @0xF39C <___libgatt_lib_db_3237>
    12D2:	E0C4      	and        al, #0xFFE0
    12D3:	08B4      	or         al, #+0x8
    12D4:	F400      	**prefx    0xF4
    12D5:	9C25      	st         al, @0xF39C <___libgatt_lib_db_3237>
    12D6:	F400      	**prefx    0xF4
    12D7:	9C15      	ld         al, @0xF39C <___libgatt_lib_db_3237>
    12D8:	FC00      	**prefx    0xFC
    12D9:	1FC4      	and        al, #0xFC1F
    12DA:	F400      	**prefx    0xF4
    12DB:	9C25      	st         al, @0xF39C <___libgatt_lib_db_3237>
    12DC:	0714      	ld         al, #+0x7
    12DD:	569C      	bsr        +0x56 <___libgatt_lib_db_4708:0x1333[p]>
    12DE:	F825      	st         al, @0xFFF8 <(scratchpad)>
    12DF:	F400      	**prefx    0xF4
    12E0:	9C15      	ld         al, @0xF39C <___libgatt_lib_db_3237>
    12E1:	E0C4      	and        al, #0xFFE0
    12E2:	F400      	**prefx    0xF4
    12E3:	9C25      	st         al, @0xF39C <___libgatt_lib_db_3237>
    12E4:	F400      	**prefx    0xF4
    12E5:	A215      	ld         al, @0xF3A2 <___libgatt_lib_db_3243>
    12E6:	F3C4      	and        al, #0xFFF3
    12E7:	F400      	**prefx    0xF4
    12E8:	A225      	st         al, @0xF3A2 <___libgatt_lib_db_3243>
    12E9:	F400      	**prefx    0xF4
    12EA:	9E15      	ld         al, @0xF39E <___libgatt_lib_db_3239>
    12EB:	FEC4      	and        al, #0xFFFE
    12EC:	F400      	**prefx    0xF4
    12ED:	9E25      	st         al, @0xF39E <___libgatt_lib_db_3239>
    12EE:	0014      	ld         al, #+0x0
    12EF:	F900      	**prefx    0xF9
    12F0:	4225      	st         al, @0xF942 <___libgatt_lib_db_2749>
    12F1:	0513      	ld         ah, @(+0x5, y)
    12F2:	0009      	**unsigned
    12F3:	01A4      	lsr        #0x1
    12F4:	E019      	ld         x, @0xFFE0 <register ah>
    12F5:	F815      	ld         al, @0xFFF8 <(scratchpad)>
    12F6:	0009      	**unsigned
    12F7:	0C00      	**prefx    0xC
    12F8:	B890      	umult      #0xBB8
    12F9:	F925      	st         al, @0xFFF9 <(scratchpad)>
    12FA:	F821      	st         ah, @0xFFF8 <(scratchpad)>
    12FB:	0010      	ld         ah, #+0x0
    12FC:	E315      	ld         al, @0xFFE3 <register uxl>
    12FD:	F935      	add        al, @0xFFF9 <(scratchpad)>
    12FE:	F841      	addc       ah, @0xFFF8 <(scratchpad)>
    12FF:	0127      	st         al, @(+0x1, y)
    1300:	0023      	st         ah, @(0x0, y)
    1301:	0014      	ld         al, #+0x0
    1302:	0513      	ld         ah, @(+0x5, y)
    1303:	7A00      	**prefx    0x7A
    1304:	6E9C      	bsr        +0x7A6E <___libgatt_lib_db_3943:0x8D72[p]>
    1305:	9500      	**prefx    0x95
    1306:	2625      	st         al, @0x9526 <___libgatt_lib_db_95+0xD>
    1307:	A000      	**prefx    0xA0
    1308:	B711      	ld         ah, @0x9FB7 <DATA_CSTORE_START+0x33>
    1309:	E085      	cmp        al, @0xFFE0 <register ah>
    130A:	04F8      	bcc        +0x4 <UART_SLOW_RATE_2K4+0x4E:0x130E[p]>
    130B:	9500      	**prefx    0x95
    130C:	2581      	cmp        ah, @0x9525 <___libgatt_lib_db_95+0xC>
    130D:	08FC      	bcs        +0x8 <UART_SLOW_RATE_2K4+0x55:0x1315[p]>
    130E:	9500      	**prefx    0x95
    130F:	2515      	ld         al, @0x9525 <___libgatt_lib_db_95+0xC>
    1310:	E085      	cmp        al, @0xFFE0 <register ah>
    1311:	1DF8      	bcc        +0x1D <UART_SLOW_RATE_2K4+0x6E:0x132E[p]>
    1312:	9500      	**prefx    0x95
    1313:	2681      	cmp        ah, @0x9526 <___libgatt_lib_db_95+0xD>
    1314:	1AF8      	bcc        +0x1A <UART_SLOW_RATE_2K4+0x6E:0x132E[p]>
    1315:	9500      	**prefx    0x95
    1316:	2615      	ld         al, @0x9526 <___libgatt_lib_db_95+0xD>
    1317:	0018      	ld         x, #+0x0
    1318:	022B      	st         x, @(+0x2, y)
    1319:	E085      	cmp        al, @0xFFE0 <register ah>
    131A:	03F8      	bcc        +0x3 <UART_SLOW_RATE_2K4+0x5D:0x131D[p]>
    131B:	0114      	ld         al, #+0x1
    131C:	0227      	st         al, @(+0x2, y)
    131D:	0423      	st         ah, @(+0x4, y)
    131E:	9500      	**prefx    0x95
    131F:	2619      	ld         x, @0x9526 <___libgatt_lib_db_95+0xD>
    1320:	032B      	st         x, @(+0x3, y)
    1321:	3400      	**prefx    0x34
    1322:	B419      	ld         x, @0x33B4 <enable_lo_offset_adc_update+0x2>
    1323:	F600      	**prefx    0xF6
    1324:	9438      	add        x, #-0xA6C
    1325:	0114      	ld         al, #+0x1
    1326:	E411      	ld         ah, @0xFFE4 <register uy>
    1327:	0230      	add        ah, #+0x2
    1328:	FF2B      	st         x, @(-0x1, y)
    1329:	FF9F      	bsr        @(-0x1, y)
    132A:	9500      	**prefx    0x95
    132B:	2611      	ld         ah, @0x9526 <___libgatt_lib_db_95+0xD>
    132C:	9500      	**prefx    0x95
    132D:	2521      	st         ah, @0x9525 <___libgatt_lib_db_95+0xC>
    132E:	0114      	ld         al, #+0x1
    132F:	FA00      	**prefx    0xFA
    1330:	0A18      	ld         x, #-0x5F6
    1331:	062B      	st         x, @(+0x6, y)
    1332:	070F      	leave      #+0x7

0x00001333 <___libgatt_lib_db_4708>:
    1333:	060B      	enter      #+0x6
    1334:	0427      	st         al, @(+0x4, y)
    1335:	0100      	**prefx    0x1
    1336:	E800      	**prefx    0xE8
    1337:	239C      	bsr        +0xE823 <___libgatt_lib_db_4519:0xFB5A[p]>
    1338:	0127      	st         al, @(+0x1, y)
    1339:	0327      	st         al, @(+0x3, y)
    133A:	0227      	st         al, @(+0x2, y)
    133B:	0514      	ld         al, #+0x5
    133C:	0027      	st         al, @(0x0, y)
    133D:	10E0      	bra        +0x10 <___libgatt_lib_db_4708+0x1A:0x134D[p]>
    133E:	0417      	ld         al, @(+0x4, y)
    133F:	0100      	**prefx    0x1
    1340:	E800      	**prefx    0xE8
    1341:	199C      	bsr        +0xE819 <___libgatt_lib_db_4519:0xFB5A[p]>
    1342:	011B      	ld         x, @(+0x1, y)
    1343:	E139      	add        x, @0xFFE1 <register al>
    1344:	012B      	st         x, @(+0x1, y)
    1345:	021B      	ld         x, @(+0x2, y)
    1346:	E189      	cmp        x, @0xFFE1 <register al>
    1347:	02F8      	bcc        +0x2 <___libgatt_lib_db_4708+0x16:0x1349[p]>
    1348:	0227      	st         al, @(+0x2, y)
    1349:	031B      	ld         x, @(+0x3, y)
    134A:	E189      	cmp        x, @0xFFE1 <register al>
    134B:	022C      	bcz        +0x2 <___libgatt_lib_db_4708+0x1A:0x134D[p]>
    134C:	0327      	st         al, @(+0x3, y)
    134D:	0017      	ld         al, @(0x0, y)
    134E:	FF34      	add        al, #-0x1
    134F:	0027      	st         al, @(0x0, y)
    1350:	FF84      	cmp        al, #-0x1
    1351:	EDF0      	bne        -0x13 <___libgatt_lib_db_4708+0xB:0x133E[p]>
    1352:	011B      	ld         x, @(+0x1, y)
    1353:	035B      	sub        x, @(+0x3, y)
    1354:	025B      	sub        x, @(+0x2, y)
    1355:	E311      	ld         ah, @0xFFE3 <register uxl>
    1356:	0009      	**unsigned
    1357:	02A4      	lsr        #0x2
    1358:	E015      	ld         al, @0xFFE0 <register ah>
    1359:	060F      	leave      #+0x6
